
AssignmentOne.elf:     file format elf32-littlenios2
AssignmentOne.elf
architecture: nios2:r1, flags 0x00000112:
EXEC_P, HAS_SYMS, D_PAGED
start address 0x00000254

Program Header:
    LOAD off    0x00001020 vaddr 0x00000020 paddr 0x00000020 align 2**12
         filesz 0x0001fcf8 memsz 0x0001fcf8 flags r-x
    LOAD off    0x00021000 vaddr 0x01000000 paddr 0x01000000 align 2**12
         filesz 0x00000000 memsz 0x00000000 flags r-x
    LOAD off    0x00021000 vaddr 0x08000000 paddr 0x08000000 align 2**12
         filesz 0x00002cf4 memsz 0x00080130 flags rw-

Sections:
Idx Name          Size      VMA       LMA       File off  Algn
  0 .entry        00000000  01000000  01000000  00021000  2**5
                  CONTENTS, ALLOC, LOAD, READONLY, CODE
  1 .exceptions   00000234  00000020  00000020  00001020  2**2
                  CONTENTS, ALLOC, LOAD, READONLY, CODE
  2 .text         0001fac4  00000254  00000254  00001254  2**2
                  CONTENTS, ALLOC, LOAD, READONLY, CODE
  3 .rodata       00000b88  08000000  08000000  00021000  2**2
                  CONTENTS, ALLOC, LOAD, READONLY, DATA
  4 .rwdata       0000216c  08000b88  08000b88  00021b88  2**2
                  CONTENTS, ALLOC, LOAD, DATA, SMALL_DATA
  5 .bss          0007d43c  08002cf4  08002cf4  00023cf4  2**2
                  ALLOC, SMALL_DATA
  6 .onchip_memory 00000000  0001fd18  0001fd18  00023cf4  2**0
                  CONTENTS
  7 .flash_controller 00000000  01000020  01000020  00023cf4  2**0
                  CONTENTS
  8 .sdram        00000000  08080130  08080130  00023cf4  2**0
                  CONTENTS
  9 .comment      00000023  00000000  00000000  00023cf4  2**0
                  CONTENTS, READONLY
 10 .debug_aranges 00001268  00000000  00000000  00023d18  2**3
                  CONTENTS, READONLY, DEBUGGING
 11 .debug_info   000313e3  00000000  00000000  00024f80  2**0
                  CONTENTS, READONLY, DEBUGGING
 12 .debug_abbrev 0000c2cf  00000000  00000000  00056363  2**0
                  CONTENTS, READONLY, DEBUGGING
 13 .debug_line   00010df5  00000000  00000000  00062632  2**0
                  CONTENTS, READONLY, DEBUGGING
 14 .debug_frame  000045c0  00000000  00000000  00073428  2**2
                  CONTENTS, READONLY, DEBUGGING
 15 .debug_str    0000662a  00000000  00000000  000779e8  2**0
                  CONTENTS, READONLY, DEBUGGING
 16 .debug_loc    0001e1fd  00000000  00000000  0007e012  2**0
                  CONTENTS, READONLY, DEBUGGING
 17 .debug_alt_sim_info 00000050  00000000  00000000  0009c210  2**2
                  CONTENTS, READONLY, DEBUGGING
 18 .debug_ranges 00001dc0  00000000  00000000  0009c260  2**3
                  CONTENTS, READONLY, DEBUGGING
 19 .thread_model 00000003  00000000  00000000  000a42b5  2**0
                  CONTENTS, READONLY
 20 .cpu          00000005  00000000  00000000  000a42b8  2**0
                  CONTENTS, READONLY
 21 .qsys         00000001  00000000  00000000  000a42bd  2**0
                  CONTENTS, READONLY
 22 .simulation_enabled 00000001  00000000  00000000  000a42be  2**0
                  CONTENTS, READONLY
 23 .sysid_hash   00000004  00000000  00000000  000a42bf  2**0
                  CONTENTS, READONLY
 24 .sysid_base   00000004  00000000  00000000  000a42c3  2**0
                  CONTENTS, READONLY
 25 .sysid_time   00000004  00000000  00000000  000a42c7  2**0
                  CONTENTS, READONLY
 26 .stderr_dev   00000009  00000000  00000000  000a42cb  2**0
                  CONTENTS, READONLY
 27 .stdin_dev    00000009  00000000  00000000  000a42d4  2**0
                  CONTENTS, READONLY
 28 .stdout_dev   00000009  00000000  00000000  000a42dd  2**0
                  CONTENTS, READONLY
 29 .sopc_system_name 00000005  00000000  00000000  000a42e6  2**0
                  CONTENTS, READONLY
 30 .quartus_project_dir 00000037  00000000  00000000  000a42eb  2**0
                  CONTENTS, READONLY
 31 .sopcinfo     000adc75  00000000  00000000  000a4322  2**0
                  CONTENTS, READONLY
SYMBOL TABLE:
01000000 l    d  .entry	00000000 .entry
00000020 l    d  .exceptions	00000000 .exceptions
00000254 l    d  .text	00000000 .text
08000000 l    d  .rodata	00000000 .rodata
08000b88 l    d  .rwdata	00000000 .rwdata
08002cf4 l    d  .bss	00000000 .bss
0001fd18 l    d  .onchip_memory	00000000 .onchip_memory
01000020 l    d  .flash_controller	00000000 .flash_controller
08080130 l    d  .sdram	00000000 .sdram
00000000 l    d  .comment	00000000 .comment
00000000 l    d  .debug_aranges	00000000 .debug_aranges
00000000 l    d  .debug_info	00000000 .debug_info
00000000 l    d  .debug_abbrev	00000000 .debug_abbrev
00000000 l    d  .debug_line	00000000 .debug_line
00000000 l    d  .debug_frame	00000000 .debug_frame
00000000 l    d  .debug_str	00000000 .debug_str
00000000 l    d  .debug_loc	00000000 .debug_loc
00000000 l    d  .debug_alt_sim_info	00000000 .debug_alt_sim_info
00000000 l    d  .debug_ranges	00000000 .debug_ranges
00000000 l    df *ABS*	00000000 ../AssignmentOne_bsp//obj/HAL/src/crt0.o
00000298 l       .text	00000000 alt_after_alt_main
00000000 l    df *ABS*	00000000 obj/default/FreeRTOS/port_asm.o
00000020 l       .exceptions	00000000 save_context
0000009c l       .exceptions	00000000 save_sp_to_pxCurrentTCB
000000ac l       .exceptions	00000000 hw_irq_test
00000150 l       .exceptions	00000000 soft_exceptions
000000c0 l       .exceptions	00000000 hw_irq_handler
000000d4 l       .exceptions	00000000 restore_context
0000016c l       .exceptions	00000000 call_scheduler
00000000 l    df *ABS*	00000000 alt_irq_handler.c
00000000 l    df *ABS*	00000000 croutine.c
08002e00 l     O .bss	00000028 pxReadyCoRoutineLists
08002e28 l     O .bss	00000014 xDelayedCoRoutineList1
08002e3c l     O .bss	00000014 xDelayedCoRoutineList2
08002cf4 l     O .bss	00000004 pxDelayedCoRoutineList
08002cf8 l     O .bss	00000004 pxOverflowDelayedCoRoutineList
08002e50 l     O .bss	00000014 xPendingReadyCoRoutineList
08002d00 l     O .bss	00000004 uxTopCoRoutineReadyPriority
08002d04 l     O .bss	00000004 xCoRoutineTickCount
08002d08 l     O .bss	00000004 xLastTickCount
08002d0c l     O .bss	00000004 xPassedTicks
000007bc l     F .text	000000a0 prvInitialiseCoRoutineLists
00000498 l     F .text	000000e0 prvCheckPendingReadyList
00000578 l     F .text	00000158 prvCheckDelayedList
00000000 l    df *ABS*	00000000 event_groups.c
00000f60 l     F .text	00000070 prvTestWaitCondition
00000000 l    df *ABS*	00000000 heap.c
08002e64 l     O .bss	0007d000 xHeap
08002c94 l     O .rwdata	00000002 heapSTRUCT_SIZE
08002c98 l     O .rwdata	00000004 xTotalHeapSize
08002d10 l     O .bss	00000008 xStart
08002d18 l     O .bss	00000004 pxEnd
08002c9c l     O .rwdata	00000004 xFreeBytesRemaining
00001210 l     F .text	000000c0 prvHeapInit
000012d0 l     F .text	00000134 prvInsertBlockIntoFreeList
00000000 l    df *ABS*	00000000 list.c
00000000 l    df *ABS*	00000000 port.c
000016d4 l     F .text	0000002c prvReadGp
00001838 l     F .text	0000009c prvSetupTimerInterrupt
00000000 l    df *ABS*	00000000 queue.c
00002690 l     F .text	00000190 prvCopyDataToQueue
00002a40 l     F .text	00000058 prvIsQueueFull
000028bc l     F .text	000000f4 prvUnlockQueue
00002820 l     F .text	0000009c prvCopyDataFromQueue
000029b0 l     F .text	00000050 prvIsQueueEmpty
00000000 l    df *ABS*	00000000 tasks.c
0807fe64 l     O .bss	000000f0 pxReadyTasksLists
0807ff54 l     O .bss	00000014 xDelayedTaskList1
0807ff68 l     O .bss	00000014 xDelayedTaskList2
08002d20 l     O .bss	00000004 pxDelayedTaskList
08002d24 l     O .bss	00000004 pxOverflowDelayedTaskList
0807ff7c l     O .bss	00000014 xPendingReadyList
0807ff90 l     O .bss	00000014 xTasksWaitingTermination
08002d28 l     O .bss	00000004 uxTasksDeleted
08002d2c l     O .bss	00000004 uxCurrentNumberOfTasks
08002d30 l     O .bss	00000004 xTickCount
08002d34 l     O .bss	00000004 uxTopReadyPriority
08002d38 l     O .bss	00000004 xSchedulerRunning
08002d3c l     O .bss	00000004 uxPendedTicks
08002d40 l     O .bss	00000004 xYieldPending
08002d44 l     O .bss	00000004 xNumOfOverflows
08002d48 l     O .bss	00000004 uxTaskNumber
08002ca0 l     O .rwdata	00000004 xNextTaskUnblockTime
08002d4c l     O .bss	00000004 uxSchedulerSuspended
00003bdc l     F .text	000000c4 prvAllocateTCBAndStack
000038b0 l     F .text	0000014c prvInitialiseTCBVariables
000039fc l     F .text	000000ac prvInitialiseTaskLists
00003da8 l     F .text	00000068 prvResetNextTaskUnblockTime
00003b50 l     F .text	0000008c prvAddCurrentTaskToDelayedList
00003894 l     F .text	0000001c prvIdleTask
08000039 l     O .rodata	00000014 ucExpectedStackBytes.2845
00003aa8 l     F .text	000000a8 prvCheckTasksWaitingTermination
00003d64 l     F .text	00000044 prvDeleteTCB
00003ca0 l     F .text	00000064 prvTaskCheckFreeStackSpace
00000000 l    df *ABS*	00000000 timers.c
0807ffa4 l     O .bss	00000014 xActiveTimerList1
0807ffb8 l     O .bss	00000014 xActiveTimerList2
08002d50 l     O .bss	00000004 pxCurrentTimerList
08002d54 l     O .bss	00000004 pxOverflowTimerList
08002d58 l     O .bss	00000004 xTimerQueue
00005008 l     F .text	0000007c prvCheckForValidListAndQueue
00004ae4 l     F .text	0000003c prvTimerTask
00004a2c l     F .text	000000b8 prvProcessExpiredTimer
00004c84 l     F .text	000000dc prvInsertTimerInActiveList
00004bc0 l     F .text	00000060 prvGetNextExpireTime
00004b20 l     F .text	000000a0 prvProcessTimerOrBlockTask
00004d60 l     F .text	00000198 prvProcessReceivedCommands
00004c20 l     F .text	00000064 prvSampleTimeNow
08002d5c l     O .bss	00000004 xLastTime.2766
00004ef8 l     F .text	00000110 prvSwitchTimerLists
00000000 l    df *ABS*	00000000 hello_world.c
000054f4 l     F .text	00000058 Switch_Control_Task
0000554c l     F .text	0000011c Load_LED_Ctrl_Task
00005da0 l     F .text	00000164 Keyboard_Task
00005a44 l     F .text	0000035c Stability_Monitor_Task
00005668 l     F .text	000003dc Load_Management_Task
00005f04 l     F .text	00000c74 VGA_Task
00000000 l    df *ABS*	00000000 lesf2.c
00000000 l    df *ABS*	00000000 mulsf3.c
00000000 l    df *ABS*	00000000 subsf3.c
00000000 l    df *ABS*	00000000 fixsfsi.c
00000000 l    df *ABS*	00000000 floatsisf.c
00000000 l    df *ABS*	00000000 divdf3.c
00000000 l    df *ABS*	00000000 gedf2.c
00000000 l    df *ABS*	00000000 muldf3.c
00000000 l    df *ABS*	00000000 subdf3.c
00000000 l    df *ABS*	00000000 fixdfsi.c
00000000 l    df *ABS*	00000000 floatsidf.c
00000000 l    df *ABS*	00000000 extendsfdf2.c
00000000 l    df *ABS*	00000000 truncdfsf2.c
00000000 l    df *ABS*	00000000 libgcc2.c
00000000 l    df *ABS*	00000000 lib2-divmod.c
00000000 l    df *ABS*	00000000 libgcc2.c
00000000 l    df *ABS*	00000000 memcmp.c
00000000 l    df *ABS*	00000000 memcpy.c
00000000 l    df *ABS*	00000000 memset.c
00000000 l    df *ABS*	00000000 printf.c
00000000 l    df *ABS*	00000000 puts.c
00000000 l    df *ABS*	00000000 sprintf.c
00000000 l    df *ABS*	00000000 strlen.c
00000000 l    df *ABS*	00000000 vfprintf.c
0800041e l     O .rodata	00000010 zeroes.4389
0800042e l     O .rodata	00000010 blanks.4388
00000000 l    df *ABS*	00000000 vfprintf.c
0800043e l     O .rodata	00000010 zeroes.4404
0000e02c l     F .text	000000bc __sbprintf
0800044e l     O .rodata	00000010 blanks.4403
00000000 l    df *ABS*	00000000 wsetup.c
00000000 l    df *ABS*	00000000 dtoa.c
0000e23c l     F .text	00000200 quorem
00000000 l    df *ABS*	00000000 fflush.c
00000000 l    df *ABS*	00000000 findfp.c
0000fd6c l     F .text	00000008 __fp_unlock
0000fd80 l     F .text	0000019c __sinit.part.1
0000ff1c l     F .text	00000008 __fp_lock
00000000 l    df *ABS*	00000000 mallocr.c
00000000 l    df *ABS*	00000000 fvwrite.c
00000000 l    df *ABS*	00000000 fwalk.c
00000000 l    df *ABS*	00000000 impure.c
08000b88 l     O .rwdata	00000424 impure_data
00000000 l    df *ABS*	00000000 locale.c
08000fcc l     O .rwdata	00000020 lc_ctype_charset
08000fac l     O .rwdata	00000020 lc_message_charset
08000fec l     O .rwdata	00000038 lconv
00000000 l    df *ABS*	00000000 makebuf.c
00000000 l    df *ABS*	00000000 mallocr.c
00000000 l    df *ABS*	00000000 memchr.c
00000000 l    df *ABS*	00000000 memmove.c
00000000 l    df *ABS*	00000000 mprec.c
08000480 l     O .rodata	0000000c p05.2768
00000000 l    df *ABS*	00000000 mallocr.c
00000000 l    df *ABS*	00000000 s_fpclassify.c
00000000 l    df *ABS*	00000000 sbrkr.c
00000000 l    df *ABS*	00000000 stdio.c
00000000 l    df *ABS*	00000000 strcmp.c
00000000 l    df *ABS*	00000000 vfprintf.c
080005b4 l     O .rodata	00000010 blanks.4332
080005a4 l     O .rodata	00000010 zeroes.4333
00000000 l    df *ABS*	00000000 vfprintf.c
000144b4 l     F .text	000000fc __sprint_r.part.0
080005d4 l     O .rodata	00000010 blanks.4348
080005c4 l     O .rodata	00000010 zeroes.4349
00015a40 l     F .text	000000bc __sbprintf
00000000 l    df *ABS*	00000000 writer.c
00000000 l    df *ABS*	00000000 closer.c
00000000 l    df *ABS*	00000000 mallocr.c
00000000 l    df *ABS*	00000000 fclose.c
00000000 l    df *ABS*	00000000 fputwc.c
00000000 l    df *ABS*	00000000 fstatr.c
00000000 l    df *ABS*	00000000 int_errno.c
00000000 l    df *ABS*	00000000 isattyr.c
00000000 l    df *ABS*	00000000 lseekr.c
00000000 l    df *ABS*	00000000 readr.c
00000000 l    df *ABS*	00000000 wbuf.c
00000000 l    df *ABS*	00000000 wcrtomb.c
00000000 l    df *ABS*	00000000 wctomb_r.c
00000000 l    df *ABS*	00000000 libgcc2.c
00000000 l    df *ABS*	00000000 libgcc2.c
00000000 l    df *ABS*	00000000 adddf3.c
00000000 l    df *ABS*	00000000 eqdf2.c
00000000 l    df *ABS*	00000000 ledf2.c
00000000 l    df *ABS*	00000000 floatunsidf.c
00000000 l    df *ABS*	00000000 alt_close.c
000179b0 l     F .text	0000003c alt_get_errno
00000000 l    df *ABS*	00000000 alt_dev.c
00017abc l     F .text	0000002c alt_dev_null_write
00000000 l    df *ABS*	00000000 alt_errno.c
00000000 l    df *ABS*	00000000 alt_fstat.c
00017ae8 l     F .text	0000003c alt_get_errno
00000000 l    df *ABS*	00000000 alt_irq_vars.c
00000000 l    df *ABS*	00000000 alt_isatty.c
00017bd4 l     F .text	0000003c alt_get_errno
00000000 l    df *ABS*	00000000 alt_lseek.c
00017cb4 l     F .text	0000003c alt_get_errno
00000000 l    df *ABS*	00000000 alt_main.c
00000000 l    df *ABS*	00000000 alt_malloc_lock.c
00000000 l    df *ABS*	00000000 alt_read.c
00017e88 l     F .text	0000003c alt_get_errno
00000000 l    df *ABS*	00000000 alt_release_fd.c
00000000 l    df *ABS*	00000000 alt_sbrk.c
08002cd8 l     O .rwdata	00000004 heap_end
00000000 l    df *ABS*	00000000 alt_write.c
000180d4 l     F .text	0000003c alt_get_errno
00000000 l    df *ABS*	00000000 alt_sys_init.c
00018208 l     F .text	00000034 alt_dev_reg
080015d4 l     O .rwdata	000000dc flash_controller
080016b0 l     O .rwdata	00001060 jtag_uart
08002710 l     O .rwdata	00000120 character_lcd
08002830 l     O .rwdata	000000c4 uart
080028f4 l     O .rwdata	00000038 ps2
0800292c l     O .rwdata	00000048 video_character_buffer_with_dma
08002974 l     O .rwdata	00000054 video_pixel_buffer_dma
00000000 l    df *ABS*	00000000 altera_avalon_cfi_flash.c
000185c8 l     F .text	00000034 alt_flash_device_register
00000000 l    df *ABS*	00000000 altera_avalon_cfi_flash_table.c
00019418 l     F .text	00000080 alt_read_16bit_query_entry
00000000 l    df *ABS*	00000000 altera_avalon_jtag_uart_fd.c
00000000 l    df *ABS*	00000000 altera_avalon_jtag_uart_init.c
0001a4c0 l     F .text	00000210 altera_avalon_jtag_uart_irq
0001a6d0 l     F .text	000000a0 altera_avalon_jtag_uart_timeout
00000000 l    df *ABS*	00000000 altera_avalon_jtag_uart_ioctl.c
00000000 l    df *ABS*	00000000 altera_avalon_jtag_uart_read.c
00000000 l    df *ABS*	00000000 altera_avalon_jtag_uart_write.c
00000000 l    df *ABS*	00000000 altera_avalon_lcd_16207.c
08002cdc l     O .rwdata	00000004 colstart
0001ad08 l     F .text	000000b8 lcd_write_command
0001adc0 l     F .text	000000d8 lcd_write_data
0001ae98 l     F .text	000000d0 lcd_clear_screen
0001af68 l     F .text	000001f0 lcd_repaint_screen
0001b158 l     F .text	000000cc lcd_scroll_up
0001b224 l     F .text	000002ac lcd_handle_escape
0001b9a4 l     F .text	000000ac alt_lcd_16207_timeout
00000000 l    df *ABS*	00000000 altera_avalon_lcd_16207_fd.c
00000000 l    df *ABS*	00000000 altera_avalon_timer_sc.c
0001bbe0 l     F .text	0000007c alt_avalon_timer_sc_irq
00000000 l    df *ABS*	00000000 altera_avalon_uart_fd.c
00000000 l    df *ABS*	00000000 altera_avalon_uart_init.c
0001be84 l     F .text	000000a0 altera_avalon_uart_irq
0001bf24 l     F .text	000000e4 altera_avalon_uart_rxirq
0001c008 l     F .text	00000148 altera_avalon_uart_txirq
00000000 l    df *ABS*	00000000 altera_avalon_uart_read.c
0001c1a4 l     F .text	0000003c alt_get_errno
00000000 l    df *ABS*	00000000 altera_avalon_uart_write.c
0001c3bc l     F .text	0000003c alt_get_errno
00000000 l    df *ABS*	00000000 altera_up_avalon_ps2.c
00000000 l    df *ABS*	00000000 altera_up_avalon_video_character_buffer_with_dma.c
00000000 l    df *ABS*	00000000 altera_up_avalon_video_pixel_buffer_dma.c
00000000 l    df *ABS*	00000000 altera_up_ps2_keyboard.c
08002df4 l     O .bss	00000004 state.2101
00000000 l    df *ABS*	00000000 alt_alarm_start.c
00000000 l    df *ABS*	00000000 alt_dcache_flush.c
00000000 l    df *ABS*	00000000 alt_dev_llist_insert.c
0001e568 l     F .text	0000003c alt_get_errno
00000000 l    df *ABS*	00000000 alt_do_ctors.c
00000000 l    df *ABS*	00000000 alt_do_dtors.c
00000000 l    df *ABS*	00000000 alt_find_dev.c
00000000 l    df *ABS*	00000000 alt_flash_dev.c
00000000 l    df *ABS*	00000000 alt_io_redirect.c
0001e854 l     F .text	000000c4 alt_open_fd
00000000 l    df *ABS*	00000000 alt_open.c
0001e994 l     F .text	0000003c alt_get_errno
0001e9d0 l     F .text	000000c4 alt_file_locked
00000000 l    df *ABS*	00000000 alt_tick.c
00000000 l    df *ABS*	00000000 alt_usleep.c
00000000 l    df *ABS*	00000000 altera_nios2_qsys_irq.c
00000000 l    df *ABS*	00000000 altera_avalon_cfi_flash_amd.c
0001f174 l     F .text	000000cc alt_write_word_amd
0001f058 l     F .text	0000011c alt_wait_for_command_to_complete_amd
00000000 l    df *ABS*	00000000 altera_avalon_cfi_flash_intel.c
0001f44c l     F .text	0000017c alt_unlock_block_intel
0001f5c8 l     F .text	000000d4 alt_write_word_intel
00000000 l    df *ABS*	00000000 alt_busy_sleep.c
00000000 l    df *ABS*	00000000 alt_find_file.c
00000000 l    df *ABS*	00000000 alt_get_fd.c
00000000 l    df *ABS*	00000000 atexit.c
00000000 l    df *ABS*	00000000 ctype_.c
08000a06 l     O .rodata	00000180 _ctype_b
00000000 l    df *ABS*	00000000 exit.c
00000000 l    df *ABS*	00000000 strcpy.c
00000000 l    df *ABS*	00000000 __atexit.c
00000000 l    df *ABS*	00000000 __call_atexit.c
00000000 l    df *ABS*	00000000 alt_exit.c
000126ec g     F .text	00000074 _mprec_log10
000127d8 g     F .text	0000008c __any_on
00015fdc g     F .text	00000054 _isatty_r
0800048c g     O .rodata	00000028 __mprec_tinytens
00017dc4 g     F .text	0000007c alt_main
0001f9bc g     F .text	00000090 strcpy
0001d808 g     F .text	0000024c alt_up_pixel_buffer_dma_draw_vline
00009a10 g     F .text	000000c0 _puts_r
00018edc g     F .text	00000040 alt_read_query_entry_32bit
0001c7f0 g     F .text	00000060 alt_up_ps2_disable_read_interrupt
08080030 g     O .bss	00000100 alt_irq
00016030 g     F .text	00000060 _lseek_r
000000c4 g       .exceptions	00000000 restore_sp_from_pxCurrentTCB
000034b4 g     F .text	00000080 vTaskPlaceOnUnorderedEventList
000011d0 g     F .text	00000020 xPortGetFreeHeapSize
0001868c g     F .text	000002a8 alt_flash_cfi_write
00000cb8 g     F .text	0000003c xEventGroupGetBitsFromISR
0001778c g     F .text	00000088 .hidden __eqdf2
08080130 g       *ABS*	00000000 __alt_heap_start
00004874 g     F .text	000000ac xTimerCreate
000099d4 g     F .text	0000003c printf
00016248 g     F .text	0000009c _wcrtomb_r
0807fff4 g     O .bss	00000014 Prev_Five_Freq
00012f68 g     F .text	0000005c __sseek
000100bc g     F .text	00000010 __sinit
000160f0 g     F .text	00000140 __swbuf_r
0001cddc g     F .text	000000fc alt_up_char_buffer_string
0001c608 g     F .text	00000034 read_CE_bit
00002ae0 g     F .text	00000098 vQueueWaitForMessageRestricted
00010b84 g     F .text	0000007c _setlocale_r
0000ff24 g     F .text	00000068 __sfmoreglue
00017e64 g     F .text	00000024 __malloc_unlock
0001c990 g     F .text	0000009c alt_up_ps2_read_data_byte_timeout
08002d64 g     O .bss	00000004 Maintenance
0001cd10 g     F .text	000000cc alt_up_char_buffer_draw
00000938 g     F .text	0000017c xEventGroupSync
0001170c g     F .text	0000015c memmove
0000085c g     F .text	00000088 xCoRoutineRemoveFromEventList
080029c8 g     O .rwdata	00000198 key_table
000040a8 g     F .text	00000054 vTaskEnterCritical
000100a4 g     F .text	00000018 _cleanup
08002d68 g     O .bss	00000004 Current_Switch_State
08080008 g     O .bss	00000014 Current_ROC_Freq
0000207c g     F .text	000000e0 xQueueGenericSendFromISR
08002d6c g     O .bss	00000004 Init_Load
00011868 g     F .text	000000a8 _Balloc
00007520 g     F .text	00000070 .hidden __fixsfsi
0001cf70 g     F .text	00000194 alt_up_pixel_buffer_dma_draw
00007f9c g     F .text	000000dc .hidden __gtdf2
00019074 g     F .text	00000050 alt_write_flash_command_32bit_device_16bit_mode
0001cf34 g     F .text	0000003c alt_up_pixel_buffer_dma_open_dev
01000000 g     F .entry	00000000 __reset
00001d4c g     F .text	00000090 xQueueGiveMutexRecursive
08002d1c g     O .bss	00000004 pxCurrentTCB
0001dde8 g     F .text	00000070 get_multi_byte_make_code_index
00015f80 g     F .text	0000005c _fstat_r
00018b80 g     F .text	000002e0 alt_flash_program_block
08002d70 g     O .bss	00000004 semaphore
08002de0 g     O .bss	00000004 errno
00012ee4 g     F .text	00000008 __seofread
00013278 g     F .text	0000123c ___svfiprintf_internal_r
0001e1d0 g     F .text	00000064 set_keyboard_rate
08002dec g     O .bss	00000004 alt_argv
000043ac g     F .text	00000188 xTaskNotify
0800ac92 g       *ABS*	00000000 _gp
0001ed8c g     F .text	00000030 usleep
0000703c g     F .text	000004e4 .hidden __subsf3
0001d104 g     F .text	0000005c alt_up_pixel_buffer_dma_change_back_buffer_address
00000ab4 g     F .text	0000019c xEventGroupWaitBits
0001e34c g     F .text	00000078 reset_keyboard
08001454 g     O .rwdata	00000180 alt_fd_list
000017e0 g     F .text	00000038 xPortStartScheduler
08002d74 g     O .bss	00000004 Ld_Manage_State
00002f24 g     F .text	00000048 vTaskEndScheduler
0001e708 g     F .text	00000090 alt_find_dev
00009734 g     F .text	00000148 memcpy
00003448 g     F .text	0000006c vTaskPlaceOnEventList
00002b78 g     F .text	000001c4 xTaskGenericCreate
0001ced8 g     F .text	0000005c alt_up_char_buffer_clear
0000fd74 g     F .text	0000000c _cleanup_r
0000910c g     F .text	000000dc .hidden __floatsidf
0001e918 g     F .text	0000007c alt_io_redirect
00017814 g     F .text	000000f4 .hidden __ltdf2
00002514 g     F .text	0000007c xQueuePeekFromISR
0001fd18 g       *ABS*	00000000 __DTOR_END__
00009ad0 g     F .text	00000014 puts
00001150 g     F .text	00000080 vPortFree
00012dc8 g     F .text	00000074 __fpclassifyd
0000029c g     F .text	00000144 xCoRoutineCreate
00012648 g     F .text	000000a4 __ratio
01000000 g       *ABS*	00000000 __alt_mem_flash_controller
00015a24 g     F .text	0000001c __vfiprintf_internal
0001d1c0 g     F .text	00000034 alt_up_pixel_buffer_dma_check_swap_buffers_status
0001a8c8 g     F .text	0000021c altera_avalon_jtag_uart_read
000099a4 g     F .text	00000030 _printf_r
000095fc g     F .text	00000064 .hidden __udivsi3
00017c10 g     F .text	000000a4 isatty
080004dc g     O .rodata	000000c8 __mprec_tens
00003d04 g     F .text	00000060 uxTaskGetStackHighWaterMark
0001d5f8 g     F .text	00000210 alt_up_pixel_buffer_dma_draw_hline
00010c00 g     F .text	0000000c __locale_charset
00006b78 g     F .text	000000c8 .hidden __lesf2
00001498 g     F .text	0000008c vListInsertEnd
08002ddc g     O .bss	00000004 __malloc_top_pad
000008e4 g     F .text	00000054 xEventGroupCreate
08002cac g     O .rwdata	00000004 __mb_cur_max
00010c30 g     F .text	0000000c _localeconv_r
00011c74 g     F .text	0000003c __i2b
00010540 g     F .text	000004bc __sfvwrite_r
00012e3c g     F .text	00000054 _sbrk_r
0001f240 g     F .text	00000080 alt_program_intel
0001db1c g     F .text	00000084 helper_plot_pixel
00000ee8 g     F .text	0000003c vEventGroupSetBitsCallback
00016090 g     F .text	00000060 _read_r
0000146c g     F .text	0000002c vListInitialiseItem
0001e4f0 g     F .text	00000078 alt_dcache_flush
08002ccc g     O .rwdata	00000004 alt_max_fd
00018e60 g     F .text	0000003c alt_read_query_entry_8bit
000018d4 g     F .text	0000004c vPortSysTickHandler
00015c74 g     F .text	000000f0 _fclose_r
0001c63c g     F .text	00000030 read_num_bytes_available
0001f2c0 g     F .text	0000018c alt_erase_block_intel
0000fd3c g     F .text	00000030 fflush
08002b60 g     O .rwdata	00000066 ascii_codes
08002dd8 g     O .bss	00000004 __malloc_max_sbrked_mem
00001920 g     F .text	00000170 alt_irq_register
0001c5a4 g     F .text	00000034 read_RI_bit
000091e8 g     F .text	00000110 .hidden __extendsfdf2
00016ee0 g     F .text	000008ac .hidden __adddf3
000123f0 g     F .text	0000010c __b2d
0001d1f4 g     F .text	00000128 alt_up_pixel_buffer_dma_clear_screen
000169a8 g     F .text	00000538 .hidden __umoddi3
00017cf0 g     F .text	000000d4 lseek
08002ca4 g     O .rwdata	00000004 _global_impure_ptr
00000cf4 g     F .text	00000180 xEventGroupSetBits
00012864 g     F .text	00000564 _realloc_r
08080130 g       *ABS*	00000000 __bss_end
0001d31c g     F .text	000002dc alt_up_pixel_buffer_dma_draw_box
0001ec84 g     F .text	00000108 alt_tick
00016430 g     F .text	00000578 .hidden __udivdi3
00015edc g     F .text	00000024 _fputwc_r
080004b4 g     O .rodata	00000028 __mprec_bigtens
00011a58 g     F .text	00000104 __s2b
00017908 g     F .text	000000a8 .hidden __floatunsidf
00012130 g     F .text	00000060 __mcmp
00000fd0 g     F .text	00000180 pvPortMalloc
0001bde0 g     F .text	000000a4 altera_avalon_uart_init
0001c6a0 g     F .text	0000002c read_data_byte
000100dc g     F .text	00000018 __fp_lock_all
08002d78 g     O .bss	00000004 LoadTimeExp
00002654 g     F .text	0000003c vQueueDelete
00001818 g     F .text	00000020 vPortEndScheduler
00001404 g     F .text	00000068 vListInitialise
0001ebe8 g     F .text	0000009c alt_alarm_stop
0001c5d8 g     F .text	00000030 read_RE_bit
08002de4 g     O .bss	00000004 alt_irq_active
0000017c g     F .exceptions	000000d8 alt_irq_handler
0800142c g     O .rwdata	00000028 alt_dev_null
000030dc g     F .text	00000028 xTaskGetTickCount
00001edc g     F .text	000001a0 xQueueGenericSend
00005104 g     F .text	0000003c MaintenanceStateButton
0001937c g     F .text	0000009c alt_set_flash_algorithm_func
0001c850 g     F .text	00000074 alt_up_ps2_write_data_byte
00011b5c g     F .text	00000068 __hi0bits
0001da54 g     F .text	000000c8 alt_up_pixel_buffer_dma_draw_rectangle
0000908c g     F .text	00000080 .hidden __fixdfsi
00003fac g     F .text	000000fc xTaskPriorityDisinherit
08002d7c g     O .bss	00000004 Thresh_Val
00018f1c g     F .text	00000044 alt_write_flash_command_8bit_device_8bit_mode
08002c2c g     O .rwdata	00000066 multi_byte_make_code
00000000 g       *ABS*	00000000 __alt_mem_onchip_memory
08002cc4 g     O .rwdata	00000008 alt_dev_list
00018110 g     F .text	000000f8 write
08002d80 g     O .bss	00000004 LoadTimer
0001dba0 g     F .text	00000248 alt_up_pixel_buffer_dma_draw_line
000035a0 g     F .text	000000f4 xTaskRemoveFromEventList
00017b24 g     F .text	000000b0 fstat
08002d84 g     O .bss	00000004 threshold_mutex
00000c50 g     F .text	00000068 xEventGroupClearBits
00017814 g     F .text	000000f4 .hidden __ledf2
0001a1d0 g     F .text	000000d8 alt_check_primary_table
00011ea8 g     F .text	00000140 __pow5mult
000145c8 g     F .text	0000145c ___vfiprintf_internal_r
08002dd0 g     O .bss	00000004 __nlocale_changed
00009660 g     F .text	00000058 .hidden __umodsi3
000189c0 g     F .text	00000064 alt_flash_cfi_read
00019114 g     F .text	00000038 alt_write_native_8bit
08002d88 g     O .bss	00000004 TimeQ
08080130 g       *ABS*	00000000 end
0001cb80 g     F .text	00000098 alt_up_ps2_write_fd
00018f60 g     F .text	00000078 alt_write_flash_command_16bit_device_8bit_mode
0001b4d0 g     F .text	000004d4 altera_avalon_lcd_16207_write
00002d3c g     F .text	000000d0 vTaskDelete
0001cc54 g     F .text	00000080 alt_up_char_buffer_init
0001c3f8 g     F .text	000001ac altera_avalon_uart_write
00019498 g     F .text	000005c8 alt_read_cfi_table
0001a40c g     F .text	000000b4 altera_avalon_jtag_uart_init
000041a0 g     F .text	00000038 pvTaskIncrementMutexHeldCount
0001fd18 g       *ABS*	00000000 __CTOR_LIST__
0808001c g     O .bss	00000014 start_time
10000000 g       *ABS*	00000000 __alt_stack_pointer
0001bc5c g     F .text	00000074 alt_avalon_timer_sc_init
08002d8c g     O .bss	00000004 Prev_Stable
0001bd30 g     F .text	00000060 altera_avalon_uart_write_fd
000094a0 g     F .text	00000064 .hidden __clzsi2
0001bd90 g     F .text	00000050 altera_avalon_uart_close_fd
0001aae4 g     F .text	00000224 altera_avalon_jtag_uart_write
000185fc g     F .text	00000090 alt_flash_cfi_init
000100cc g     F .text	00000004 __sfp_lock_acquire
00011628 g     F .text	000000e4 memchr
0000be18 g     F .text	000021f8 ___vfprintf_internal_r
00009ae4 g     F .text	00000058 _sprintf_r
000037a8 g     F .text	000000c4 xTaskCheckForTimeOut
000006d0 g     F .text	000000ec vCoRoutineSchedule
00010230 g     F .text	00000310 _free_r
00010c0c g     F .text	00000010 __locale_mb_cur_max
08002cfc g     O .bss	00000004 pxCurrentCoRoutine
0001fb64 g     F .text	00000180 __call_exitprocs
0001e234 g     F .text	00000118 translate_make_code
08002dcc g     O .bss	00000004 __mlocale_changed
000041d8 g     F .text	000000cc ulTaskNotifyTake
08002cb0 g     O .rwdata	00000004 __malloc_sbrk_base
00000254 g     F .text	00000048 _start
08002df8 g     O .bss	00000004 _alt_tick_rate
00002f6c g     F .text	0000002c vTaskSuspendAll
00003104 g     F .text	0000002c xTaskGetTickCountFromISR
00011fe8 g     F .text	00000148 __lshift
08002dfc g     O .bss	00000004 _alt_nticks
00017ec4 g     F .text	000000fc read
00018274 g     F .text	00000354 alt_sys_init
00007590 g     F .text	00000124 .hidden __floatsisf
000130a8 g     F .text	000001d0 __ssprint_r
000015fc g     F .text	00000098 uxListRemove
0001fa4c g     F .text	00000118 __register_exitproc
0001ca9c g     F .text	00000058 alt_up_ps2_clear_fifo
00018e9c g     F .text	00000040 alt_read_query_entry_16bit
00011cb0 g     F .text	000001f8 __multiply
0001a770 g     F .text	00000068 altera_avalon_jtag_uart_close
00003e84 g     F .text	00000128 vTaskPriorityInherit
0807ffcc g     O .bss	00000028 __malloc_current_mallinfo
000191b8 g     F .text	000001c4 alt_set_flash_width_func
000124fc g     F .text	0000014c __d2b
08002d90 g     O .bss	00000004 freqSemaphore
00003314 g     F .text	00000134 vTaskSwitchContext
00004534 g     F .text	000001bc xTaskNotifyFromISR
00005218 g     F .text	0000004c freq_relay_isr
0001a2a8 g     F .text	00000060 altera_avalon_jtag_uart_read_fd
08002d94 g     O .bss	00000004 StabilityQ
0001f8cc g     F .text	000000a4 alt_get_fd
00003534 g     F .text	0000006c vTaskPlaceOnEventListRestricted
0001f69c g     F .text	00000128 alt_busy_sleep
00015b5c g     F .text	00000054 _close_r
000042a4 g     F .text	00000108 xTaskNotifyWait
0001ee48 g     F .text	00000210 alt_erase_block_amd
0001e114 g     F .text	000000bc decode_scancode
000096b8 g     F .text	0000007c memcmp
0001a368 g     F .text	00000050 altera_avalon_jtag_uart_close_fd
08080130 g       *ABS*	00000000 __alt_stack_base
0001a3b8 g     F .text	00000054 altera_avalon_jtag_uart_ioctl_fd
08002d98 g     O .bss	00000004 PRVGADraw
00004920 g     F .text	000000dc xTimerGenericCommand
0000e0e8 g     F .text	00000154 __swsetup_r
00019a60 g     F .text	00000770 alt_read_cfi_width
00001694 g     F .text	00000040 vApplicationStackOverflowHook
000076b4 g     F .text	000008e8 .hidden __divdf3
08002d9c g     O .bss	00000004 recordTime
0000ff8c g     F .text	00000118 __sfp
08002da0 g     O .bss	00000004 Current_Stable
00012760 g     F .text	00000078 __copybits
00003130 g     F .text	00000020 uxTaskGetNumberOfTasks
08002da4 g     O .bss	00000001 byte
08001024 g     O .rwdata	00000408 __malloc_av_
000100d8 g     F .text	00000004 __sinit_lock_release
00008078 g     F .text	00000718 .hidden __muldf3
00012e90 g     F .text	00000054 __sread
0001f7c4 g     F .text	00000108 alt_find_file
0001e5a4 g     F .text	000000a4 alt_dev_llist_insert
00017e40 g     F .text	00000024 __malloc_lock
00018024 g     F .text	000000b0 sbrk
00009c40 g     F .text	000021d8 ___svfprintf_internal_r
00001ddc g     F .text	000000a8 xQueueTakeMutexRecursive
0000fce0 g     F .text	0000005c _fflush_r
00000e74 g     F .text	00000074 vEventGroupDelete
00015bb0 g     F .text	000000c4 _calloc_r
08002ce0 g     O .rwdata	00000008 alt_flash_dev_list
00019028 g     F .text	0000004c alt_write_flash_command_16bit_device_16bit_mode
08002cf4 g       *ABS*	00000000 __bss_start
0000987c g     F .text	00000128 memset
00005264 g     F .text	00000290 main
0001de58 g     F .text	00000070 get_single_byte_make_code_index
08002df0 g     O .bss	00000004 alt_envp
08002dd4 g     O .bss	00000004 __malloc_max_total_mem
0001d160 g     F .text	00000060 alt_up_pixel_buffer_dma_swap_buffers
0001ccd4 g     F .text	0000003c alt_up_char_buffer_open_dev
0001a308 g     F .text	00000060 altera_avalon_jtag_uart_write_fd
00016230 g     F .text	00000018 __swbuf
00006b78 g     F .text	000000c8 .hidden __ltsf2
00001524 g     F .text	000000d8 vListInsert
0001ba50 g     F .text	00000130 altera_avalon_lcd_16207_init
00012fc4 g     F .text	00000008 __sclose
10000000 g       *ABS*	00000000 __alt_heap_limit
08002da8 g     O .bss	00000004 Freq_Val
00015d64 g     F .text	00000014 fclose
00004808 g     F .text	0000006c xTimerCreateTimerTask
0001ca2c g     F .text	00000070 alt_up_ps2_read_data_byte
000092f8 g     F .text	000001a8 .hidden __truncdfsf2
0000e43c g     F .text	00001688 _dtoa_r
00010e1c g     F .text	0000080c _malloc_r
000163a4 g     F .text	00000030 __ascii_wctomb
000049fc g     F .text	00000030 pcTimerGetTimerName
08002cd0 g     O .rwdata	00000004 alt_errno
000190c4 g     F .text	00000050 alt_write_flash_command_32bit_device_32bit_mode
000109fc g     F .text	000000c4 _fwalk
0000243c g     F .text	000000d8 xQueueReceiveFromISR
00018a24 g     F .text	0000015c alt_write_value_to_flash
00003e10 g     F .text	00000028 xTaskGetCurrentTaskHandle
0001cc18 g     F .text	0000003c alt_up_ps2_open_dev
0001914c g     F .text	00000038 alt_write_native_16bit
00009504 g     F .text	00000084 .hidden __divsi3
00001ba8 g     F .text	000000d8 xQueueGenericCreate
0001010c g     F .text	00000124 _malloc_trim_r
0001c794 g     F .text	0000005c alt_up_ps2_enable_read_interrupt
0001fd18 g       *ABS*	00000000 __CTOR_END__
00006c40 g     F .text	000003fc .hidden __mulsf3
00012fcc g     F .text	000000dc strcmp
08002dac g     O .bss	00000004 time_end
00001e84 g     F .text	00000058 xQueueCreateCountingSemaphore
0001fd18 g       *ABS*	00000000 __DTOR_LIST__
0001778c g     F .text	00000088 .hidden __nedf2
0001823c g     F .text	00000038 alt_irq_init
00003694 g     F .text	000000d8 xTaskRemoveFromUnorderedEventList
00017fc0 g     F .text	00000064 alt_release_fd
00002f98 g     F .text	00000144 xTaskResumeAll
000025d0 g     F .text	00000054 uxQueueSpacesAvailable
0001c66c g     F .text	00000034 read_data_valid
00009b3c g     F .text	0000006c sprintf
080002d5 g     O .rodata	00000100 .hidden __clz_tab
00002e84 g     F .text	000000a0 vTaskStartScheduler
08002dc8 g     O .bss	00000004 _PathLocale
0001c92c g     F .text	00000064 alt_up_ps2_write_data_byte_with_ack
0001f970 g     F .text	00000014 atexit
00015afc g     F .text	00000060 _write_r
00010c3c g     F .text	00000018 setlocale
00002a98 g     F .text	00000048 xQueueIsQueueFullFromISR
000050d4 g     F .text	00000030 pvTimerGetTimerID
08002db0 g     O .bss	00000004 switch_control_handle
000003e0 g     F .text	000000b8 vCoRoutineAddToDelayedList
08002ca8 g     O .rwdata	00000004 _impure_ptr
08002de8 g     O .bss	00000004 alt_argc
0000fac4 g     F .text	0000021c __sflush_r
0001e6a8 g     F .text	00000060 _do_dtors
00010c28 g     F .text	00000008 __locale_cjk_lang
08002d60 g     O .bss	00000001 use_ROC_Thresh
0001238c g     F .text	00000064 __ulp
000100f4 g     F .text	00000018 __fp_unlock_all
0000386c g     F .text	00000028 vTaskMissedYield
0001bb80 g     F .text	00000060 altera_avalon_lcd_16207_write_fd
08002db4 g     O .bss	00000004 Current_Freq
08002cbc g     O .rwdata	00000008 alt_fs_list
00018fd8 g     F .text	00000050 alt_write_flash_command_32bit_device_8bit_mode
00002590 g     F .text	00000040 uxQueueMessagesWaiting
0000222c g     F .text	00000210 xQueueGenericReceive
08002db8 g     O .bss	00000004 Thresh_ROC
00003150 g     F .text	000001c4 xTaskIncrementTick
00010c54 g     F .text	0000000c localeconv
00001a90 g     F .text	00000118 xQueueGenericReset
08002cf4 g       *ABS*	00000000 _edata
0001bcd0 g     F .text	00000060 altera_avalon_uart_read_fd
08080130 g       *ABS*	00000000 _end
0001e798 g     F .text	00000068 alt_flash_open_dev
00015d78 g     F .text	00000164 __fputwc
08002dbc g     O .bss	00000004 readStart
0001a7d8 g     F .text	000000f0 altera_avalon_jtag_uart_ioctl
000011f0 g     F .text	00000020 vPortInitialiseBlocks
00005084 g     F .text	00000050 xTimerIsTimerActive
00012eec g     F .text	0000007c __swrite
08002cb4 g     O .rwdata	00000004 __malloc_trim_threshold
0001edbc g     F .text	00000024 altera_nios2_qsys_irq_init
00010c1c g     F .text	0000000c __locale_msgcharset
0001f984 g     F .text	00000038 exit
00010ac0 g     F .text	000000c4 _fwalk_reent
0001c6cc g     F .text	000000c8 alt_up_ps2_init
00012190 g     F .text	000001fc __mdiff
0001e800 g     F .text	00000054 alt_flash_close_dev
00009588 g     F .text	00000074 .hidden __modsi3
08002cf0 g     O .rwdata	00000004 __ctype_ptr__
000051ec g     F .text	0000002c loadTimerISR
00002e0c g     F .text	00000078 vTaskDelay
10000000 g       *ABS*	00000000 __alt_data_end
000100d0 g     F .text	00000004 __sfp_lock_release
08000000 g       *ABS*	00000000 __alt_mem_sdram
08002dc0 g     O .bss	00000004 start
00003e38 g     F .text	0000004c xTaskGetSchedulerState
08000905 g     O .rodata	00000101 _ctype_
0001c150 g     F .text	00000054 altera_avalon_uart_close
0001fce4 g     F .text	00000034 _exit
0001e3c4 g     F .text	0000012c alt_alarm_start
0001dec8 g     F .text	0000024c get_next_state
00010c60 g     F .text	000001bc __smakebuf_r
00019184 g     F .text	00000034 alt_write_native_32bit
0001c8c4 g     F .text	00000068 alt_up_ps2_wait_for_ack
000040fc g     F .text	00000060 vTaskExitCritical
00009ba8 g     F .text	00000098 strlen
00001700 g     F .text	000000e0 pxPortInitialiseStack
0001ea94 g     F .text	00000154 open
00005140 g     F .text	000000ac ps2_isr
00007f9c g     F .text	000000dc .hidden __gedf2
00018934 g     F .text	0000008c alt_flash_cfi_get_info
08002cb8 g     O .rwdata	00000004 __wctomb
000145b0 g     F .text	00000018 __sprint_r
0000376c g     F .text	0000003c vTaskSetTimeOutState
08002cd4 g     O .rwdata	00000004 alt_priority_mask
08002dc4 g     O .bss	00000004 LoadControlQ
0000e010 g     F .text	0000001c __vfprintf_internal
0001c1e0 g     F .text	000001dc altera_avalon_uart_read
000163d4 g     F .text	0000005c _wctomb_r
00002624 g     F .text	00000030 uxQueueMessagesWaitingFromISR
00002a00 g     F .text	00000040 xQueueIsQueueEmptyFromISR
0001caf4 g     F .text	0000008c alt_up_ps2_read_fd
00008790 g     F .text	000008fc .hidden __subdf3
08002bc6 g     O .rwdata	00000066 single_byte_make_code
00011bc4 g     F .text	000000b0 __lo0bits
08002ce8 g     O .rwdata	00000008 alt_alarm_list
0001e648 g     F .text	00000060 _do_ctors
0000415c g     F .text	00000044 uxTaskResetEventItemValue
000162e4 g     F .text	000000c0 wcrtomb
00001c80 g     F .text	000000cc xQueueCreateMutex
000179ec g     F .text	000000d0 close
0001ede0 g     F .text	00000068 alt_program_amd
000046f0 g     F .text	00000118 vTaskNotifyGiveFromISR
00000f24 g     F .text	0000003c vEventGroupClearBitsCallback
0000215c g     F .text	000000d0 xQueueGiveFromISR
00015f00 g     F .text	00000080 fputwc
000100d4 g     F .text	00000004 __sinit_lock_acquire
00011938 g     F .text	00000120 __multadd
00011910 g     F .text	00000028 _Bfree



Disassembly of section .exceptions:

00000020 <save_context>:
# Entry point for exceptions.
.section .exceptions.entry, "xa"		

# Save the entire context of a task.
save_context:
	addi	ea, ea, -4			# Point to the next instruction.
  20:	ef7fff04 	addi	ea,ea,-4
	addi	sp,	sp, -116		# Create space on the stack.
  24:	deffe304 	addi	sp,sp,-116
	stw		ra, 0(sp)
  28:	dfc00015 	stw	ra,0(sp)
								# Leave a gap for muldiv 0
	stw		at, 8(sp)		 
  2c:	d8400215 	stw	at,8(sp)
	stw		r2, 12(sp)
  30:	d8800315 	stw	r2,12(sp)
	stw		r3, 16(sp)
  34:	d8c00415 	stw	r3,16(sp)
	stw		r4, 20(sp)
  38:	d9000515 	stw	r4,20(sp)
	stw		r5, 24(sp) 
  3c:	d9400615 	stw	r5,24(sp)
	stw		r6, 28(sp) 
  40:	d9800715 	stw	r6,28(sp)
	stw		r7, 32(sp) 
  44:	d9c00815 	stw	r7,32(sp)
	stw		r8, 36(sp) 
  48:	da000915 	stw	r8,36(sp)
	stw		r9, 40(sp) 
  4c:	da400a15 	stw	r9,40(sp)
	stw		r10, 44(sp)
  50:	da800b15 	stw	r10,44(sp)
	stw		r11, 48(sp)
  54:	dac00c15 	stw	r11,48(sp)
	stw		r12, 52(sp)
  58:	db000d15 	stw	r12,52(sp)
	stw		r13, 56(sp)
  5c:	db400e15 	stw	r13,56(sp)
	stw		r14, 60(sp)
  60:	db800f15 	stw	r14,60(sp)
	stw		r15, 64(sp)
  64:	dbc01015 	stw	r15,64(sp)
	rdctl	r5, estatus 		# Save the eStatus
  68:	000b307a 	rdctl	r5,estatus
	stw		r5, 68(sp)
  6c:	d9401115 	stw	r5,68(sp)
	stw		ea, 72(sp)			# Save the PC
  70:	df401215 	stw	ea,72(sp)
	stw		r16, 76(sp)			# Save the remaining registers
  74:	dc001315 	stw	r16,76(sp)
	stw		r17, 80(sp)
  78:	dc401415 	stw	r17,80(sp)
	stw		r18, 84(sp)
  7c:	dc801515 	stw	r18,84(sp)
	stw		r19, 88(sp)
  80:	dcc01615 	stw	r19,88(sp)
	stw		r20, 92(sp)
  84:	dd001715 	stw	r20,92(sp)
	stw		r21, 96(sp)
  88:	dd401815 	stw	r21,96(sp)
	stw		r22, 100(sp)
  8c:	dd801915 	stw	r22,100(sp)
	stw		r23, 104(sp)
  90:	ddc01a15 	stw	r23,104(sp)
	stw		gp, 108(sp)
  94:	de801b15 	stw	gp,108(sp)
	stw		fp, 112(sp)
  98:	df001c15 	stw	fp,112(sp)

0000009c <save_sp_to_pxCurrentTCB>:
  9c:	06020034 	movhi	et,2048

save_sp_to_pxCurrentTCB:
	movia	et, pxCurrentTCB	# Load the address of the pxCurrentTCB pointer
  a0:	c60b4704 	addi	et,et,11548
	ldw		et, (et)			# Load the value of the pxCurrentTCB pointer
  a4:	c6000017 	ldw	et,0(et)
	stw		sp, (et)			# Store the stack pointer into the top of the TCB
  a8:	c6c00015 	stw	sp,0(et)

000000ac <hw_irq_test>:
hw_irq_test:
	/*
     * Test to see if the exception was a software exception or caused 
     * by an external interrupt, and vector accordingly.
     */
    rdctl	r4, ipending		# Load the Pending Interrupts indication
  ac:	0009313a 	rdctl	r4,ipending
	rdctl	r5, estatus 		# Load the eStatus (enabled interrupts).
  b0:	000b307a 	rdctl	r5,estatus
    andi	r2, r5, 1			# Are interrupts enabled globally.
  b4:	2880004c 	andi	r2,r5,1
    beq		r2, zero, soft_exceptions		# Interrupts are not enabled.
  b8:	10002526 	beq	r2,zero,150 <soft_exceptions>
    beq		r4, zero, soft_exceptions		# There are no interrupts triggered.
  bc:	20002426 	beq	r4,zero,150 <soft_exceptions>

000000c0 <hw_irq_handler>:

	.section .exceptions.irqhandler, "xa"
hw_irq_handler:
	call	alt_irq_handler					# Call the alt_irq_handler to deliver to the registered interrupt handler.
  c0:	000017c0 	call	17c <alt_irq_handler>

000000c4 <restore_sp_from_pxCurrentTCB>:
  c4:	06020034 	movhi	et,2048

    .section .exceptions.irqreturn, "xa"
restore_sp_from_pxCurrentTCB:
	movia	et, pxCurrentTCB		# Load the address of the pxCurrentTCB pointer
  c8:	c60b4704 	addi	et,et,11548
	ldw		et, (et)				# Load the value of the pxCurrentTCB pointer
  cc:	c6000017 	ldw	et,0(et)
	ldw		sp, (et)				# Load the stack pointer with the top value of the TCB
  d0:	c6c00017 	ldw	sp,0(et)

000000d4 <restore_context>:

restore_context:
	ldw		ra, 0(sp)		# Restore the registers.
  d4:	dfc00017 	ldw	ra,0(sp)
							# Leave a gap for muldiv 0.
	ldw		at, 8(sp)
  d8:	d8400217 	ldw	at,8(sp)
	ldw		r2, 12(sp)
  dc:	d8800317 	ldw	r2,12(sp)
	ldw		r3, 16(sp)
  e0:	d8c00417 	ldw	r3,16(sp)
	ldw		r4, 20(sp)
  e4:	d9000517 	ldw	r4,20(sp)
	ldw		r5, 24(sp) 
  e8:	d9400617 	ldw	r5,24(sp)
	ldw		r6, 28(sp) 
  ec:	d9800717 	ldw	r6,28(sp)
	ldw		r7, 32(sp) 
  f0:	d9c00817 	ldw	r7,32(sp)
	ldw		r8, 36(sp) 
  f4:	da000917 	ldw	r8,36(sp)
	ldw		r9, 40(sp) 
  f8:	da400a17 	ldw	r9,40(sp)
	ldw		r10, 44(sp)
  fc:	da800b17 	ldw	r10,44(sp)
	ldw		r11, 48(sp)
 100:	dac00c17 	ldw	r11,48(sp)
	ldw		r12, 52(sp)
 104:	db000d17 	ldw	r12,52(sp)
	ldw		r13, 56(sp)
 108:	db400e17 	ldw	r13,56(sp)
	ldw		r14, 60(sp)
 10c:	db800f17 	ldw	r14,60(sp)
	ldw		r15, 64(sp)
 110:	dbc01017 	ldw	r15,64(sp)
	ldw		et, 68(sp)		# Load the eStatus
 114:	de001117 	ldw	et,68(sp)
	wrctl	estatus, et 	# Write the eStatus
 118:	c001707a 	wrctl	estatus,et
	ldw		ea, 72(sp)		# Load the Program Counter
 11c:	df401217 	ldw	ea,72(sp)
	ldw		r16, 76(sp)
 120:	dc001317 	ldw	r16,76(sp)
	ldw		r17, 80(sp)
 124:	dc401417 	ldw	r17,80(sp)
	ldw		r18, 84(sp)
 128:	dc801517 	ldw	r18,84(sp)
	ldw		r19, 88(sp)
 12c:	dcc01617 	ldw	r19,88(sp)
	ldw		r20, 92(sp)
 130:	dd001717 	ldw	r20,92(sp)
	ldw		r21, 96(sp)
 134:	dd401817 	ldw	r21,96(sp)
	ldw		r22, 100(sp)
 138:	dd801917 	ldw	r22,100(sp)
	ldw		r23, 104(sp)
 13c:	ddc01a17 	ldw	r23,104(sp)
	ldw		gp, 108(sp)
 140:	de801b17 	ldw	gp,108(sp)
	ldw		fp, 112(sp)
 144:	df001c17 	ldw	fp,112(sp)
	addi	sp,	sp, 116		# Release stack space
 148:	dec01d04 	addi	sp,sp,116

    eret					# Return to address ea, loading eStatus into Status.
 14c:	ef80083a 	eret

00000150 <soft_exceptions>:
   
	.section .exceptions.soft, "xa"
soft_exceptions:
	ldw		et, 0(ea)				# Load the instruction where the interrupt occured.
 150:	ee000017 	ldw	et,0(ea)
	movhi	at, %hi(0x003B683A)		# Load the registers with the trap instruction code
 154:	00400ef4 	movhi	at,59
	ori		at, at, %lo(0x003B683A)
 158:	085a0e94 	ori	at,at,26682
   	cmpne	et, et, at				# Compare the trap instruction code to the last excuted instruction
 15c:	c070c03a 	cmpne	et,et,at
  	beq		et, r0, call_scheduler	# its a trap so switchcontext
 160:	c0000226 	beq	et,zero,16c <call_scheduler>
  	break							# This is an un-implemented instruction or muldiv problem.
 164:	003da03a 	break	0
  	br		restore_context			# its something else
 168:	003fda06 	br	d4 <__alt_data_end+0xf00000d4>

0000016c <call_scheduler>:

call_scheduler:
	addi	ea, ea, 4						# A trap was called, increment the program counter so it is not called again.
 16c:	ef400104 	addi	ea,ea,4
	stw		ea, 72(sp)						# Save the new program counter to the context.
 170:	df401215 	stw	ea,72(sp)
	call	vTaskSwitchContext				# Pick the next context.
 174:	00033140 	call	3314 <vTaskSwitchContext>
	br		restore_sp_from_pxCurrentTCB	# Switch in the task context and restore. 
 178:	003fd206 	br	c4 <__alt_data_end+0xf00000c4>

0000017c <alt_irq_handler>:
 * instruction is present if the macro ALT_CI_INTERRUPT_VECTOR defined.
 */

void alt_irq_handler (void) __attribute__ ((section (".exceptions")));
void alt_irq_handler (void)
{
 17c:	defff904 	addi	sp,sp,-28
 180:	dfc00615 	stw	ra,24(sp)
 184:	df000515 	stw	fp,20(sp)
 188:	df000504 	addi	fp,sp,20
  
  /*
   * Notify the operating system that we are at interrupt level.
   */ 
  
  ALT_OS_INT_ENTER();
 18c:	0001883a 	nop
#ifndef NIOS2_EIC_PRESENT
static ALT_INLINE alt_u32 ALT_ALWAYS_INLINE alt_irq_pending (void)
{
  alt_u32 active;

  NIOS2_READ_IPENDING (active);
 190:	0005313a 	rdctl	r2,ipending
 194:	e0bffe15 	stw	r2,-8(fp)

  return active;
 198:	e0bffe17 	ldw	r2,-8(fp)
   * Consider the case where the high priority interupt is asserted during
   * the interrupt entry sequence for a lower priority interrupt to see why
   * this is the case.
   */

  active = alt_irq_pending ();
 19c:	e0bffb15 	stw	r2,-20(fp)

  do
  {
    i = 0;
 1a0:	e03ffd15 	stw	zero,-12(fp)
    mask = 1;
 1a4:	00800044 	movi	r2,1
 1a8:	e0bffc15 	stw	r2,-16(fp)
     * called to clear the interrupt condition.
     */

    do
    {
      if (active & mask)
 1ac:	e0fffb17 	ldw	r3,-20(fp)
 1b0:	e0bffc17 	ldw	r2,-16(fp)
 1b4:	1884703a 	and	r2,r3,r2
 1b8:	10001526 	beq	r2,zero,210 <alt_irq_handler+0x94>
      { 
#ifdef ALT_ENHANCED_INTERRUPT_API_PRESENT
        alt_irq[i].handler(alt_irq[i].context); 
#else
        alt_irq[i].handler(alt_irq[i].context, i); 
 1bc:	00820234 	movhi	r2,2056
 1c0:	10800c04 	addi	r2,r2,48
 1c4:	e0fffd17 	ldw	r3,-12(fp)
 1c8:	180690fa 	slli	r3,r3,3
 1cc:	10c5883a 	add	r2,r2,r3
 1d0:	10c00017 	ldw	r3,0(r2)
 1d4:	00820234 	movhi	r2,2056
 1d8:	10800c04 	addi	r2,r2,48
 1dc:	e13ffd17 	ldw	r4,-12(fp)
 1e0:	200890fa 	slli	r4,r4,3
 1e4:	1105883a 	add	r2,r2,r4
 1e8:	10800104 	addi	r2,r2,4
 1ec:	10800017 	ldw	r2,0(r2)
 1f0:	e17ffd17 	ldw	r5,-12(fp)
 1f4:	1009883a 	mov	r4,r2
 1f8:	183ee83a 	callr	r3
#endif
        break;
 1fc:	0001883a 	nop
#ifndef NIOS2_EIC_PRESENT
static ALT_INLINE alt_u32 ALT_ALWAYS_INLINE alt_irq_pending (void)
{
  alt_u32 active;

  NIOS2_READ_IPENDING (active);
 200:	0005313a 	rdctl	r2,ipending
 204:	e0bfff15 	stw	r2,-4(fp)

  return active;
 208:	e0bfff17 	ldw	r2,-4(fp)
 20c:	00000706 	br	22c <alt_irq_handler+0xb0>
      }
      mask <<= 1;
 210:	e0bffc17 	ldw	r2,-16(fp)
 214:	1085883a 	add	r2,r2,r2
 218:	e0bffc15 	stw	r2,-16(fp)
      i++;
 21c:	e0bffd17 	ldw	r2,-12(fp)
 220:	10800044 	addi	r2,r2,1
 224:	e0bffd15 	stw	r2,-12(fp)

    } while (1);
 228:	003fe006 	br	1ac <__alt_data_end+0xf00001ac>

    active = alt_irq_pending ();
 22c:	e0bffb15 	stw	r2,-20(fp)
    
  } while (active);
 230:	e0bffb17 	ldw	r2,-20(fp)
 234:	103fda1e 	bne	r2,zero,1a0 <__alt_data_end+0xf00001a0>

  /*
   * Notify the operating system that interrupt processing is complete.
   */ 

  ALT_OS_INT_EXIT();
 238:	0001883a 	nop
}
 23c:	0001883a 	nop
 240:	e037883a 	mov	sp,fp
 244:	dfc00117 	ldw	ra,4(sp)
 248:	df000017 	ldw	fp,0(sp)
 24c:	dec00204 	addi	sp,sp,8
 250:	f800283a 	ret

Disassembly of section .text:

00000254 <_start>:

    /* Assume the data cache size is always a power of two. */
#if NIOS2_DCACHE_SIZE > 0x8000
    movhi r2, %hi(NIOS2_DCACHE_SIZE)
#else
    movui r2, NIOS2_DCACHE_SIZE
     254:	00820014 	movui	r2,2048
#endif

0:
    initd 0(r2)
     258:	10000033 	initd	0(r2)
#ifdef NIOS2_ECC_PRESENT
    addi r2, r2, -4
#else
    addi r2, r2, -NIOS2_DCACHE_LINE_SIZE
     25c:	10bff804 	addi	r2,r2,-32
#endif
    bgt r2, zero, 0b
     260:	00bffd16 	blt	zero,r2,258 <__alt_data_end+0xf0000258>

    /*
     * Now that the caches are initialized, set up the stack pointer and global pointer.
     * The values provided by the linker are assumed to be correctly aligned.
     */
    movhi sp, %hi(__alt_stack_pointer)
     264:	06c40034 	movhi	sp,4096
    ori sp, sp, %lo(__alt_stack_pointer)
     268:	dec00014 	ori	sp,sp,0
    movhi gp, %hi(_gp)
     26c:	06820034 	movhi	gp,2048
    ori gp, gp, %lo(_gp)
     270:	d6ab2494 	ori	gp,gp,44178
 */
#ifndef ALT_SIM_OPTIMIZE
    /* Log that the BSS is about to be cleared. */
    ALT_LOG_PUTS(alt_log_msg_bss)

    movhi r2, %hi(__bss_start)
     274:	00820034 	movhi	r2,2048
    ori r2, r2, %lo(__bss_start)
     278:	108b3d14 	ori	r2,r2,11508

    movhi r3, %hi(__bss_end)
     27c:	00c20234 	movhi	r3,2056
    ori r3, r3, %lo(__bss_end)
     280:	18c04c14 	ori	r3,r3,304

    beq r2, r3, 1f
     284:	10c00326 	beq	r2,r3,294 <_start+0x40>

0:
    stw zero, (r2)
     288:	10000015 	stw	zero,0(r2)
    addi r2, r2, 4
     28c:	10800104 	addi	r2,r2,4
    bltu r2, r3, 0b
     290:	10fffd36 	bltu	r2,r3,288 <__alt_data_end+0xf0000288>

    /* Log that alt_main is about to be called. */
    ALT_LOG_PUTS(alt_log_msg_alt_main)

    /* Call the C entry point. It should never return. */
    call alt_main
     294:	0017dc40 	call	17dc4 <alt_main>

00000298 <alt_after_alt_main>:

    /* Wait in infinite loop in case alt_main does return. */
alt_after_alt_main:
    br alt_after_alt_main
     298:	003fff06 	br	298 <__alt_data_end+0xf0000298>

0000029c <xCoRoutineCreate>:
static void prvCheckDelayedList( void );

/*-----------------------------------------------------------*/

BaseType_t xCoRoutineCreate( crCOROUTINE_CODE pxCoRoutineCode, UBaseType_t uxPriority, UBaseType_t uxIndex )
{
     29c:	defff904 	addi	sp,sp,-28
     2a0:	dfc00615 	stw	ra,24(sp)
     2a4:	df000515 	stw	fp,20(sp)
     2a8:	df000504 	addi	fp,sp,20
     2ac:	e13ffd15 	stw	r4,-12(fp)
     2b0:	e17ffe15 	stw	r5,-8(fp)
     2b4:	e1bfff15 	stw	r6,-4(fp)
BaseType_t xReturn;
CRCB_t *pxCoRoutine;

	/* Allocate the memory that will store the co-routine control block. */
	pxCoRoutine = ( CRCB_t * ) pvPortMalloc( sizeof( CRCB_t ) );
     2b8:	01000e04 	movi	r4,56
     2bc:	0000fd00 	call	fd0 <pvPortMalloc>
     2c0:	e0bffc15 	stw	r2,-16(fp)
	if( pxCoRoutine )
     2c4:	e0bffc17 	ldw	r2,-16(fp)
     2c8:	10003d26 	beq	r2,zero,3c0 <xCoRoutineCreate+0x124>
	{
		/* If pxCurrentCoRoutine is NULL then this is the first co-routine to
		be created and the co-routine data structures need initialising. */
		if( pxCurrentCoRoutine == NULL )
     2cc:	d0a01a97 	ldw	r2,-32662(gp)
     2d0:	1000031e 	bne	r2,zero,2e0 <xCoRoutineCreate+0x44>
		{
			pxCurrentCoRoutine = pxCoRoutine;
     2d4:	e0bffc17 	ldw	r2,-16(fp)
     2d8:	d0a01a95 	stw	r2,-32662(gp)
			prvInitialiseCoRoutineLists();
     2dc:	00007bc0 	call	7bc <prvInitialiseCoRoutineLists>
		}

		/* Check the priority is within limits. */
		if( uxPriority >= configMAX_CO_ROUTINE_PRIORITIES )
     2e0:	e0bffe17 	ldw	r2,-8(fp)
     2e4:	108000b0 	cmpltui	r2,r2,2
     2e8:	1000021e 	bne	r2,zero,2f4 <xCoRoutineCreate+0x58>
		{
			uxPriority = configMAX_CO_ROUTINE_PRIORITIES - 1;
     2ec:	00800044 	movi	r2,1
     2f0:	e0bffe15 	stw	r2,-8(fp)
		}

		/* Fill out the co-routine control block from the function parameters. */
		pxCoRoutine->uxState = corINITIAL_STATE;
     2f4:	e0bffc17 	ldw	r2,-16(fp)
     2f8:	10000d0d 	sth	zero,52(r2)
		pxCoRoutine->uxPriority = uxPriority;
     2fc:	e0bffc17 	ldw	r2,-16(fp)
     300:	e0fffe17 	ldw	r3,-8(fp)
     304:	10c00b15 	stw	r3,44(r2)
		pxCoRoutine->uxIndex = uxIndex;
     308:	e0bffc17 	ldw	r2,-16(fp)
     30c:	e0ffff17 	ldw	r3,-4(fp)
     310:	10c00c15 	stw	r3,48(r2)
		pxCoRoutine->pxCoRoutineFunction = pxCoRoutineCode;
     314:	e0bffc17 	ldw	r2,-16(fp)
     318:	e0fffd17 	ldw	r3,-12(fp)
     31c:	10c00015 	stw	r3,0(r2)

		/* Initialise all the other co-routine control block parameters. */
		vListInitialiseItem( &( pxCoRoutine->xGenericListItem ) );
     320:	e0bffc17 	ldw	r2,-16(fp)
     324:	10800104 	addi	r2,r2,4
     328:	1009883a 	mov	r4,r2
     32c:	000146c0 	call	146c <vListInitialiseItem>
		vListInitialiseItem( &( pxCoRoutine->xEventListItem ) );
     330:	e0bffc17 	ldw	r2,-16(fp)
     334:	10800604 	addi	r2,r2,24
     338:	1009883a 	mov	r4,r2
     33c:	000146c0 	call	146c <vListInitialiseItem>

		/* Set the co-routine control block as a link back from the ListItem_t.
		This is so we can get back to the containing CRCB from a generic item
		in a list. */
		listSET_LIST_ITEM_OWNER( &( pxCoRoutine->xGenericListItem ), pxCoRoutine );
     340:	e0bffc17 	ldw	r2,-16(fp)
     344:	e0fffc17 	ldw	r3,-16(fp)
     348:	10c00415 	stw	r3,16(r2)
		listSET_LIST_ITEM_OWNER( &( pxCoRoutine->xEventListItem ), pxCoRoutine );
     34c:	e0bffc17 	ldw	r2,-16(fp)
     350:	e0fffc17 	ldw	r3,-16(fp)
     354:	10c00915 	stw	r3,36(r2)

		/* Event lists are always in priority order. */
		listSET_LIST_ITEM_VALUE( &( pxCoRoutine->xEventListItem ), ( ( TickType_t ) configMAX_CO_ROUTINE_PRIORITIES - ( TickType_t ) uxPriority ) );
     358:	00c00084 	movi	r3,2
     35c:	e0bffe17 	ldw	r2,-8(fp)
     360:	1887c83a 	sub	r3,r3,r2
     364:	e0bffc17 	ldw	r2,-16(fp)
     368:	10c00615 	stw	r3,24(r2)

		/* Now the co-routine has been initialised it can be added to the ready
		list at the correct priority. */
		prvAddCoRoutineToReadyQueue( pxCoRoutine );
     36c:	e0bffc17 	ldw	r2,-16(fp)
     370:	10800b17 	ldw	r2,44(r2)
     374:	d0e01b97 	ldw	r3,-32658(gp)
     378:	1880032e 	bgeu	r3,r2,388 <xCoRoutineCreate+0xec>
     37c:	e0bffc17 	ldw	r2,-16(fp)
     380:	10800b17 	ldw	r2,44(r2)
     384:	d0a01b95 	stw	r2,-32658(gp)
     388:	e0bffc17 	ldw	r2,-16(fp)
     38c:	10800b17 	ldw	r2,44(r2)
     390:	10c00524 	muli	r3,r2,20
     394:	00820034 	movhi	r2,2048
     398:	108b8004 	addi	r2,r2,11776
     39c:	1887883a 	add	r3,r3,r2
     3a0:	e0bffc17 	ldw	r2,-16(fp)
     3a4:	10800104 	addi	r2,r2,4
     3a8:	100b883a 	mov	r5,r2
     3ac:	1809883a 	mov	r4,r3
     3b0:	00014980 	call	1498 <vListInsertEnd>

		xReturn = pdPASS;
     3b4:	00800044 	movi	r2,1
     3b8:	e0bffb15 	stw	r2,-20(fp)
     3bc:	00000206 	br	3c8 <xCoRoutineCreate+0x12c>
	}
	else
	{
		xReturn = errCOULD_NOT_ALLOCATE_REQUIRED_MEMORY;
     3c0:	00bfffc4 	movi	r2,-1
     3c4:	e0bffb15 	stw	r2,-20(fp)
	}

	return xReturn;
     3c8:	e0bffb17 	ldw	r2,-20(fp)
}
     3cc:	e037883a 	mov	sp,fp
     3d0:	dfc00117 	ldw	ra,4(sp)
     3d4:	df000017 	ldw	fp,0(sp)
     3d8:	dec00204 	addi	sp,sp,8
     3dc:	f800283a 	ret

000003e0 <vCoRoutineAddToDelayedList>:
/*-----------------------------------------------------------*/

void vCoRoutineAddToDelayedList( TickType_t xTicksToDelay, List_t *pxEventList )
{
     3e0:	defffb04 	addi	sp,sp,-20
     3e4:	dfc00415 	stw	ra,16(sp)
     3e8:	df000315 	stw	fp,12(sp)
     3ec:	df000304 	addi	fp,sp,12
     3f0:	e13ffe15 	stw	r4,-8(fp)
     3f4:	e17fff15 	stw	r5,-4(fp)
TickType_t xTimeToWake;

	/* Calculate the time to wake - this may overflow but this is
	not a problem. */
	xTimeToWake = xCoRoutineTickCount + xTicksToDelay;
     3f8:	d0e01c97 	ldw	r3,-32654(gp)
     3fc:	e0bffe17 	ldw	r2,-8(fp)
     400:	1885883a 	add	r2,r3,r2
     404:	e0bffd15 	stw	r2,-12(fp)

	/* We must remove ourselves from the ready list before adding
	ourselves to the blocked list as the same list item is used for
	both lists. */
	( void ) uxListRemove( ( ListItem_t * ) &( pxCurrentCoRoutine->xGenericListItem ) );
     408:	d0a01a97 	ldw	r2,-32662(gp)
     40c:	10800104 	addi	r2,r2,4
     410:	1009883a 	mov	r4,r2
     414:	00015fc0 	call	15fc <uxListRemove>

	/* The list item will be inserted in wake time order. */
	listSET_LIST_ITEM_VALUE( &( pxCurrentCoRoutine->xGenericListItem ), xTimeToWake );
     418:	d0a01a97 	ldw	r2,-32662(gp)
     41c:	e0fffd17 	ldw	r3,-12(fp)
     420:	10c00115 	stw	r3,4(r2)

	if( xTimeToWake < xCoRoutineTickCount )
     424:	d0a01c97 	ldw	r2,-32654(gp)
     428:	e0fffd17 	ldw	r3,-12(fp)
     42c:	1880072e 	bgeu	r3,r2,44c <vCoRoutineAddToDelayedList+0x6c>
	{
		/* Wake time has overflowed.  Place this item in the
		overflow list. */
		vListInsert( ( List_t * ) pxOverflowDelayedCoRoutineList, ( ListItem_t * ) &( pxCurrentCoRoutine->xGenericListItem ) );
     430:	d0e01997 	ldw	r3,-32666(gp)
     434:	d0a01a97 	ldw	r2,-32662(gp)
     438:	10800104 	addi	r2,r2,4
     43c:	100b883a 	mov	r5,r2
     440:	1809883a 	mov	r4,r3
     444:	00015240 	call	1524 <vListInsert>
     448:	00000606 	br	464 <vCoRoutineAddToDelayedList+0x84>
	}
	else
	{
		/* The wake time has not overflowed, so we can use the
		current block list. */
		vListInsert( ( List_t * ) pxDelayedCoRoutineList, ( ListItem_t * ) &( pxCurrentCoRoutine->xGenericListItem ) );
     44c:	d0e01897 	ldw	r3,-32670(gp)
     450:	d0a01a97 	ldw	r2,-32662(gp)
     454:	10800104 	addi	r2,r2,4
     458:	100b883a 	mov	r5,r2
     45c:	1809883a 	mov	r4,r3
     460:	00015240 	call	1524 <vListInsert>
	}

	if( pxEventList )
     464:	e0bfff17 	ldw	r2,-4(fp)
     468:	10000526 	beq	r2,zero,480 <vCoRoutineAddToDelayedList+0xa0>
	{
		/* Also add the co-routine to an event list.  If this is done then the
		function must be called with interrupts disabled. */
		vListInsert( pxEventList, &( pxCurrentCoRoutine->xEventListItem ) );
     46c:	d0a01a97 	ldw	r2,-32662(gp)
     470:	10800604 	addi	r2,r2,24
     474:	100b883a 	mov	r5,r2
     478:	e13fff17 	ldw	r4,-4(fp)
     47c:	00015240 	call	1524 <vListInsert>
	}
}
     480:	0001883a 	nop
     484:	e037883a 	mov	sp,fp
     488:	dfc00117 	ldw	ra,4(sp)
     48c:	df000017 	ldw	fp,0(sp)
     490:	dec00204 	addi	sp,sp,8
     494:	f800283a 	ret

00000498 <prvCheckPendingReadyList>:
/*-----------------------------------------------------------*/

static void prvCheckPendingReadyList( void )
{
     498:	defffb04 	addi	sp,sp,-20
     49c:	dfc00415 	stw	ra,16(sp)
     4a0:	df000315 	stw	fp,12(sp)
     4a4:	df000304 	addi	fp,sp,12
	/* Are there any co-routines waiting to get moved to the ready list?  These
	are co-routines that have been readied by an ISR.  The ISR cannot access
	the	ready lists itself. */
	while( listLIST_IS_EMPTY( &xPendingReadyCoRoutineList ) == pdFALSE )
     4a8:	00002906 	br	550 <prvCheckPendingReadyList+0xb8>
static ALT_INLINE alt_irq_context ALT_ALWAYS_INLINE 
       alt_irq_disable_all (void)
{
  alt_irq_context context;

  NIOS2_READ_STATUS (context);
     4ac:	0005303a 	rdctl	r2,status
     4b0:	e0bffe15 	stw	r2,-8(fp)

  NIOS2_WRITE_STATUS (context & ~NIOS2_STATUS_PIE_MSK);
     4b4:	e0fffe17 	ldw	r3,-8(fp)
     4b8:	00bfff84 	movi	r2,-2
     4bc:	1884703a 	and	r2,r3,r2
     4c0:	1001703a 	wrctl	status,r2
		CRCB_t *pxUnblockedCRCB;

		/* The pending ready list can be accessed by an ISR. */
		portDISABLE_INTERRUPTS();
		{
			pxUnblockedCRCB = ( CRCB_t * ) listGET_OWNER_OF_HEAD_ENTRY( (&xPendingReadyCoRoutineList) );
     4c4:	00820034 	movhi	r2,2048
     4c8:	108b9404 	addi	r2,r2,11856
     4cc:	10800317 	ldw	r2,12(r2)
     4d0:	10800317 	ldw	r2,12(r2)
     4d4:	e0bffd15 	stw	r2,-12(fp)
			( void ) uxListRemove( &( pxUnblockedCRCB->xEventListItem ) );
     4d8:	e0bffd17 	ldw	r2,-12(fp)
     4dc:	10800604 	addi	r2,r2,24
     4e0:	1009883a 	mov	r4,r2
     4e4:	00015fc0 	call	15fc <uxListRemove>
     4e8:	00800044 	movi	r2,1
     4ec:	e0bfff15 	stw	r2,-4(fp)
  status &= ~NIOS2_STATUS_PIE_MSK;
  status |= (context & NIOS2_STATUS_PIE_MSK);
  
  NIOS2_WRITE_STATUS (status);
#else
  NIOS2_WRITE_STATUS (context);
     4f0:	e0bfff17 	ldw	r2,-4(fp)
     4f4:	1001703a 	wrctl	status,r2
		}
		portENABLE_INTERRUPTS();

		( void ) uxListRemove( &( pxUnblockedCRCB->xGenericListItem ) );
     4f8:	e0bffd17 	ldw	r2,-12(fp)
     4fc:	10800104 	addi	r2,r2,4
     500:	1009883a 	mov	r4,r2
     504:	00015fc0 	call	15fc <uxListRemove>
		prvAddCoRoutineToReadyQueue( pxUnblockedCRCB );
     508:	e0bffd17 	ldw	r2,-12(fp)
     50c:	10800b17 	ldw	r2,44(r2)
     510:	d0e01b97 	ldw	r3,-32658(gp)
     514:	1880032e 	bgeu	r3,r2,524 <prvCheckPendingReadyList+0x8c>
     518:	e0bffd17 	ldw	r2,-12(fp)
     51c:	10800b17 	ldw	r2,44(r2)
     520:	d0a01b95 	stw	r2,-32658(gp)
     524:	e0bffd17 	ldw	r2,-12(fp)
     528:	10800b17 	ldw	r2,44(r2)
     52c:	10c00524 	muli	r3,r2,20
     530:	00820034 	movhi	r2,2048
     534:	108b8004 	addi	r2,r2,11776
     538:	1887883a 	add	r3,r3,r2
     53c:	e0bffd17 	ldw	r2,-12(fp)
     540:	10800104 	addi	r2,r2,4
     544:	100b883a 	mov	r5,r2
     548:	1809883a 	mov	r4,r3
     54c:	00014980 	call	1498 <vListInsertEnd>
static void prvCheckPendingReadyList( void )
{
	/* Are there any co-routines waiting to get moved to the ready list?  These
	are co-routines that have been readied by an ISR.  The ISR cannot access
	the	ready lists itself. */
	while( listLIST_IS_EMPTY( &xPendingReadyCoRoutineList ) == pdFALSE )
     550:	00820034 	movhi	r2,2048
     554:	108b9404 	addi	r2,r2,11856
     558:	10800017 	ldw	r2,0(r2)
     55c:	103fd31e 	bne	r2,zero,4ac <__alt_data_end+0xf00004ac>
		portENABLE_INTERRUPTS();

		( void ) uxListRemove( &( pxUnblockedCRCB->xGenericListItem ) );
		prvAddCoRoutineToReadyQueue( pxUnblockedCRCB );
	}
}
     560:	0001883a 	nop
     564:	e037883a 	mov	sp,fp
     568:	dfc00117 	ldw	ra,4(sp)
     56c:	df000017 	ldw	fp,0(sp)
     570:	dec00204 	addi	sp,sp,8
     574:	f800283a 	ret

00000578 <prvCheckDelayedList>:
/*-----------------------------------------------------------*/

static void prvCheckDelayedList( void )
{
     578:	defffa04 	addi	sp,sp,-24
     57c:	dfc00515 	stw	ra,20(sp)
     580:	df000415 	stw	fp,16(sp)
     584:	df000404 	addi	fp,sp,16
CRCB_t *pxCRCB;

	xPassedTicks = xTaskGetTickCount() - xLastTickCount;
     588:	00030dc0 	call	30dc <xTaskGetTickCount>
     58c:	1007883a 	mov	r3,r2
     590:	d0a01d97 	ldw	r2,-32650(gp)
     594:	1885c83a 	sub	r2,r3,r2
     598:	d0a01e95 	stw	r2,-32646(gp)
	while( xPassedTicks )
     59c:	00004206 	br	6a8 <prvCheckDelayedList+0x130>
	{
		xCoRoutineTickCount++;
     5a0:	d0a01c97 	ldw	r2,-32654(gp)
     5a4:	10800044 	addi	r2,r2,1
     5a8:	d0a01c95 	stw	r2,-32654(gp)
		xPassedTicks--;
     5ac:	d0a01e97 	ldw	r2,-32646(gp)
     5b0:	10bfffc4 	addi	r2,r2,-1
     5b4:	d0a01e95 	stw	r2,-32646(gp)

		/* If the tick count has overflowed we need to swap the ready lists. */
		if( xCoRoutineTickCount == 0 )
     5b8:	d0a01c97 	ldw	r2,-32654(gp)
     5bc:	1000371e 	bne	r2,zero,69c <prvCheckDelayedList+0x124>
		{
			List_t * pxTemp;

			/* Tick count has overflowed so we need to swap the delay lists.  If there are
			any items in pxDelayedCoRoutineList here then there is an error! */
			pxTemp = pxDelayedCoRoutineList;
     5c0:	d0a01897 	ldw	r2,-32670(gp)
     5c4:	e0bffc15 	stw	r2,-16(fp)
			pxDelayedCoRoutineList = pxOverflowDelayedCoRoutineList;
     5c8:	d0a01997 	ldw	r2,-32666(gp)
     5cc:	d0a01895 	stw	r2,-32670(gp)
			pxOverflowDelayedCoRoutineList = pxTemp;
     5d0:	e0bffc17 	ldw	r2,-16(fp)
     5d4:	d0a01995 	stw	r2,-32666(gp)
		}

		/* See if this tick has made a timeout expire. */
		while( listLIST_IS_EMPTY( pxDelayedCoRoutineList ) == pdFALSE )
     5d8:	00003006 	br	69c <prvCheckDelayedList+0x124>
		{
			pxCRCB = ( CRCB_t * ) listGET_OWNER_OF_HEAD_ENTRY( pxDelayedCoRoutineList );
     5dc:	d0a01897 	ldw	r2,-32670(gp)
     5e0:	10800317 	ldw	r2,12(r2)
     5e4:	10800317 	ldw	r2,12(r2)
     5e8:	e0bffd15 	stw	r2,-12(fp)

			if( xCoRoutineTickCount < listGET_LIST_ITEM_VALUE( &( pxCRCB->xGenericListItem ) ) )
     5ec:	e0bffd17 	ldw	r2,-12(fp)
     5f0:	10800117 	ldw	r2,4(r2)
     5f4:	d0e01c97 	ldw	r3,-32654(gp)
     5f8:	1880012e 	bgeu	r3,r2,600 <prvCheckDelayedList+0x88>
			{
				/* Timeout not yet expired. */
				break;
     5fc:	00002a06 	br	6a8 <prvCheckDelayedList+0x130>
static ALT_INLINE alt_irq_context ALT_ALWAYS_INLINE 
       alt_irq_disable_all (void)
{
  alt_irq_context context;

  NIOS2_READ_STATUS (context);
     600:	0005303a 	rdctl	r2,status
     604:	e0bfff15 	stw	r2,-4(fp)

  NIOS2_WRITE_STATUS (context & ~NIOS2_STATUS_PIE_MSK);
     608:	e0ffff17 	ldw	r3,-4(fp)
     60c:	00bfff84 	movi	r2,-2
     610:	1884703a 	and	r2,r3,r2
     614:	1001703a 	wrctl	status,r2
				/* The event could have occurred just before this critical
				section.  If this is the case then the generic list item will
				have been moved to the pending ready list and the following
				line is still valid.  Also the pvContainer parameter will have
				been set to NULL so the following lines are also valid. */
				( void ) uxListRemove( &( pxCRCB->xGenericListItem ) );
     618:	e0bffd17 	ldw	r2,-12(fp)
     61c:	10800104 	addi	r2,r2,4
     620:	1009883a 	mov	r4,r2
     624:	00015fc0 	call	15fc <uxListRemove>

				/* Is the co-routine waiting on an event also? */
				if( pxCRCB->xEventListItem.pvContainer )
     628:	e0bffd17 	ldw	r2,-12(fp)
     62c:	10800a17 	ldw	r2,40(r2)
     630:	10000426 	beq	r2,zero,644 <prvCheckDelayedList+0xcc>
				{
					( void ) uxListRemove( &( pxCRCB->xEventListItem ) );
     634:	e0bffd17 	ldw	r2,-12(fp)
     638:	10800604 	addi	r2,r2,24
     63c:	1009883a 	mov	r4,r2
     640:	00015fc0 	call	15fc <uxListRemove>
     644:	00800044 	movi	r2,1
     648:	e0bffe15 	stw	r2,-8(fp)
  status &= ~NIOS2_STATUS_PIE_MSK;
  status |= (context & NIOS2_STATUS_PIE_MSK);
  
  NIOS2_WRITE_STATUS (status);
#else
  NIOS2_WRITE_STATUS (context);
     64c:	e0bffe17 	ldw	r2,-8(fp)
     650:	1001703a 	wrctl	status,r2
				}
			}
			portENABLE_INTERRUPTS();

			prvAddCoRoutineToReadyQueue( pxCRCB );
     654:	e0bffd17 	ldw	r2,-12(fp)
     658:	10800b17 	ldw	r2,44(r2)
     65c:	d0e01b97 	ldw	r3,-32658(gp)
     660:	1880032e 	bgeu	r3,r2,670 <prvCheckDelayedList+0xf8>
     664:	e0bffd17 	ldw	r2,-12(fp)
     668:	10800b17 	ldw	r2,44(r2)
     66c:	d0a01b95 	stw	r2,-32658(gp)
     670:	e0bffd17 	ldw	r2,-12(fp)
     674:	10800b17 	ldw	r2,44(r2)
     678:	10c00524 	muli	r3,r2,20
     67c:	00820034 	movhi	r2,2048
     680:	108b8004 	addi	r2,r2,11776
     684:	1887883a 	add	r3,r3,r2
     688:	e0bffd17 	ldw	r2,-12(fp)
     68c:	10800104 	addi	r2,r2,4
     690:	100b883a 	mov	r5,r2
     694:	1809883a 	mov	r4,r3
     698:	00014980 	call	1498 <vListInsertEnd>
			pxDelayedCoRoutineList = pxOverflowDelayedCoRoutineList;
			pxOverflowDelayedCoRoutineList = pxTemp;
		}

		/* See if this tick has made a timeout expire. */
		while( listLIST_IS_EMPTY( pxDelayedCoRoutineList ) == pdFALSE )
     69c:	d0a01897 	ldw	r2,-32670(gp)
     6a0:	10800017 	ldw	r2,0(r2)
     6a4:	103fcd1e 	bne	r2,zero,5dc <__alt_data_end+0xf00005dc>
static void prvCheckDelayedList( void )
{
CRCB_t *pxCRCB;

	xPassedTicks = xTaskGetTickCount() - xLastTickCount;
	while( xPassedTicks )
     6a8:	d0a01e97 	ldw	r2,-32646(gp)
     6ac:	103fbc1e 	bne	r2,zero,5a0 <__alt_data_end+0xf00005a0>

			prvAddCoRoutineToReadyQueue( pxCRCB );
		}
	}

	xLastTickCount = xCoRoutineTickCount;
     6b0:	d0a01c97 	ldw	r2,-32654(gp)
     6b4:	d0a01d95 	stw	r2,-32650(gp)
}
     6b8:	0001883a 	nop
     6bc:	e037883a 	mov	sp,fp
     6c0:	dfc00117 	ldw	ra,4(sp)
     6c4:	df000017 	ldw	fp,0(sp)
     6c8:	dec00204 	addi	sp,sp,8
     6cc:	f800283a 	ret

000006d0 <vCoRoutineSchedule>:
/*-----------------------------------------------------------*/

void vCoRoutineSchedule( void )
{
     6d0:	defffd04 	addi	sp,sp,-12
     6d4:	dfc00215 	stw	ra,8(sp)
     6d8:	df000115 	stw	fp,4(sp)
     6dc:	df000104 	addi	fp,sp,4
	/* See if any co-routines readied by events need moving to the ready lists. */
	prvCheckPendingReadyList();
     6e0:	00004980 	call	498 <prvCheckPendingReadyList>

	/* See if any delayed co-routines have timed out. */
	prvCheckDelayedList();
     6e4:	00005780 	call	578 <prvCheckDelayedList>

	/* Find the highest priority queue that contains ready co-routines. */
	while( listLIST_IS_EMPTY( &( pxReadyCoRoutineLists[ uxTopCoRoutineReadyPriority ] ) ) )
     6e8:	00000506 	br	700 <vCoRoutineSchedule+0x30>
	{
		if( uxTopCoRoutineReadyPriority == 0 )
     6ec:	d0a01b97 	ldw	r2,-32658(gp)
     6f0:	10002c26 	beq	r2,zero,7a4 <vCoRoutineSchedule+0xd4>
		{
			/* No more co-routines to check. */
			return;
		}
		--uxTopCoRoutineReadyPriority;
     6f4:	d0a01b97 	ldw	r2,-32658(gp)
     6f8:	10bfffc4 	addi	r2,r2,-1
     6fc:	d0a01b95 	stw	r2,-32658(gp)

	/* See if any delayed co-routines have timed out. */
	prvCheckDelayedList();

	/* Find the highest priority queue that contains ready co-routines. */
	while( listLIST_IS_EMPTY( &( pxReadyCoRoutineLists[ uxTopCoRoutineReadyPriority ] ) ) )
     700:	d0e01b97 	ldw	r3,-32658(gp)
     704:	00820034 	movhi	r2,2048
     708:	108b8004 	addi	r2,r2,11776
     70c:	18c00524 	muli	r3,r3,20
     710:	10c5883a 	add	r2,r2,r3
     714:	10800017 	ldw	r2,0(r2)
     718:	103ff426 	beq	r2,zero,6ec <__alt_data_end+0xf00006ec>
		--uxTopCoRoutineReadyPriority;
	}

	/* listGET_OWNER_OF_NEXT_ENTRY walks through the list, so the co-routines
	 of the	same priority get an equal share of the processor time. */
	listGET_OWNER_OF_NEXT_ENTRY( pxCurrentCoRoutine, &( pxReadyCoRoutineLists[ uxTopCoRoutineReadyPriority ] ) );
     71c:	d0a01b97 	ldw	r2,-32658(gp)
     720:	10c00524 	muli	r3,r2,20
     724:	00820034 	movhi	r2,2048
     728:	108b8004 	addi	r2,r2,11776
     72c:	1885883a 	add	r2,r3,r2
     730:	e0bfff15 	stw	r2,-4(fp)
     734:	e0bfff17 	ldw	r2,-4(fp)
     738:	10800117 	ldw	r2,4(r2)
     73c:	10c00117 	ldw	r3,4(r2)
     740:	e0bfff17 	ldw	r2,-4(fp)
     744:	10c00115 	stw	r3,4(r2)
     748:	e0bfff17 	ldw	r2,-4(fp)
     74c:	10c00117 	ldw	r3,4(r2)
     750:	e0bfff17 	ldw	r2,-4(fp)
     754:	10800204 	addi	r2,r2,8
     758:	1880051e 	bne	r3,r2,770 <vCoRoutineSchedule+0xa0>
     75c:	e0bfff17 	ldw	r2,-4(fp)
     760:	10800117 	ldw	r2,4(r2)
     764:	10c00117 	ldw	r3,4(r2)
     768:	e0bfff17 	ldw	r2,-4(fp)
     76c:	10c00115 	stw	r3,4(r2)
     770:	e0bfff17 	ldw	r2,-4(fp)
     774:	10800117 	ldw	r2,4(r2)
     778:	10800317 	ldw	r2,12(r2)
     77c:	d0a01a95 	stw	r2,-32662(gp)

	/* Call the co-routine. */
	( pxCurrentCoRoutine->pxCoRoutineFunction )( pxCurrentCoRoutine, pxCurrentCoRoutine->uxIndex );
     780:	d0a01a97 	ldw	r2,-32662(gp)
     784:	10800017 	ldw	r2,0(r2)
     788:	d1201a97 	ldw	r4,-32662(gp)
     78c:	d0e01a97 	ldw	r3,-32662(gp)
     790:	18c00c17 	ldw	r3,48(r3)
     794:	180b883a 	mov	r5,r3
     798:	103ee83a 	callr	r2

	return;
     79c:	0001883a 	nop
     7a0:	00000106 	br	7a8 <vCoRoutineSchedule+0xd8>
	while( listLIST_IS_EMPTY( &( pxReadyCoRoutineLists[ uxTopCoRoutineReadyPriority ] ) ) )
	{
		if( uxTopCoRoutineReadyPriority == 0 )
		{
			/* No more co-routines to check. */
			return;
     7a4:	0001883a 	nop

	/* Call the co-routine. */
	( pxCurrentCoRoutine->pxCoRoutineFunction )( pxCurrentCoRoutine, pxCurrentCoRoutine->uxIndex );

	return;
}
     7a8:	e037883a 	mov	sp,fp
     7ac:	dfc00117 	ldw	ra,4(sp)
     7b0:	df000017 	ldw	fp,0(sp)
     7b4:	dec00204 	addi	sp,sp,8
     7b8:	f800283a 	ret

000007bc <prvInitialiseCoRoutineLists>:
/*-----------------------------------------------------------*/

static void prvInitialiseCoRoutineLists( void )
{
     7bc:	defffd04 	addi	sp,sp,-12
     7c0:	dfc00215 	stw	ra,8(sp)
     7c4:	df000115 	stw	fp,4(sp)
     7c8:	df000104 	addi	fp,sp,4
UBaseType_t uxPriority;

	for( uxPriority = 0; uxPriority < configMAX_CO_ROUTINE_PRIORITIES; uxPriority++ )
     7cc:	e03fff15 	stw	zero,-4(fp)
     7d0:	00000a06 	br	7fc <prvInitialiseCoRoutineLists+0x40>
	{
		vListInitialise( ( List_t * ) &( pxReadyCoRoutineLists[ uxPriority ] ) );
     7d4:	e0bfff17 	ldw	r2,-4(fp)
     7d8:	10c00524 	muli	r3,r2,20
     7dc:	00820034 	movhi	r2,2048
     7e0:	108b8004 	addi	r2,r2,11776
     7e4:	1885883a 	add	r2,r3,r2
     7e8:	1009883a 	mov	r4,r2
     7ec:	00014040 	call	1404 <vListInitialise>

static void prvInitialiseCoRoutineLists( void )
{
UBaseType_t uxPriority;

	for( uxPriority = 0; uxPriority < configMAX_CO_ROUTINE_PRIORITIES; uxPriority++ )
     7f0:	e0bfff17 	ldw	r2,-4(fp)
     7f4:	10800044 	addi	r2,r2,1
     7f8:	e0bfff15 	stw	r2,-4(fp)
     7fc:	e0bfff17 	ldw	r2,-4(fp)
     800:	108000b0 	cmpltui	r2,r2,2
     804:	103ff31e 	bne	r2,zero,7d4 <__alt_data_end+0xf00007d4>
	{
		vListInitialise( ( List_t * ) &( pxReadyCoRoutineLists[ uxPriority ] ) );
	}

	vListInitialise( ( List_t * ) &xDelayedCoRoutineList1 );
     808:	01020034 	movhi	r4,2048
     80c:	210b8a04 	addi	r4,r4,11816
     810:	00014040 	call	1404 <vListInitialise>
	vListInitialise( ( List_t * ) &xDelayedCoRoutineList2 );
     814:	01020034 	movhi	r4,2048
     818:	210b8f04 	addi	r4,r4,11836
     81c:	00014040 	call	1404 <vListInitialise>
	vListInitialise( ( List_t * ) &xPendingReadyCoRoutineList );
     820:	01020034 	movhi	r4,2048
     824:	210b9404 	addi	r4,r4,11856
     828:	00014040 	call	1404 <vListInitialise>

	/* Start with pxDelayedCoRoutineList using list1 and the
	pxOverflowDelayedCoRoutineList using list2. */
	pxDelayedCoRoutineList = &xDelayedCoRoutineList1;
     82c:	00820034 	movhi	r2,2048
     830:	108b8a04 	addi	r2,r2,11816
     834:	d0a01895 	stw	r2,-32670(gp)
	pxOverflowDelayedCoRoutineList = &xDelayedCoRoutineList2;
     838:	00820034 	movhi	r2,2048
     83c:	108b8f04 	addi	r2,r2,11836
     840:	d0a01995 	stw	r2,-32666(gp)
}
     844:	0001883a 	nop
     848:	e037883a 	mov	sp,fp
     84c:	dfc00117 	ldw	ra,4(sp)
     850:	df000017 	ldw	fp,0(sp)
     854:	dec00204 	addi	sp,sp,8
     858:	f800283a 	ret

0000085c <xCoRoutineRemoveFromEventList>:
/*-----------------------------------------------------------*/

BaseType_t xCoRoutineRemoveFromEventList( const List_t *pxEventList )
{
     85c:	defffb04 	addi	sp,sp,-20
     860:	dfc00415 	stw	ra,16(sp)
     864:	df000315 	stw	fp,12(sp)
     868:	df000304 	addi	fp,sp,12
     86c:	e13fff15 	stw	r4,-4(fp)
BaseType_t xReturn;

	/* This function is called from within an interrupt.  It can only access
	event lists and the pending ready list.  This function assumes that a
	check has already been made to ensure pxEventList is not empty. */
	pxUnblockedCRCB = ( CRCB_t * ) listGET_OWNER_OF_HEAD_ENTRY( pxEventList );
     870:	e0bfff17 	ldw	r2,-4(fp)
     874:	10800317 	ldw	r2,12(r2)
     878:	10800317 	ldw	r2,12(r2)
     87c:	e0bffe15 	stw	r2,-8(fp)
	( void ) uxListRemove( &( pxUnblockedCRCB->xEventListItem ) );
     880:	e0bffe17 	ldw	r2,-8(fp)
     884:	10800604 	addi	r2,r2,24
     888:	1009883a 	mov	r4,r2
     88c:	00015fc0 	call	15fc <uxListRemove>
	vListInsertEnd( ( List_t * ) &( xPendingReadyCoRoutineList ), &( pxUnblockedCRCB->xEventListItem ) );
     890:	e0bffe17 	ldw	r2,-8(fp)
     894:	10800604 	addi	r2,r2,24
     898:	100b883a 	mov	r5,r2
     89c:	01020034 	movhi	r4,2048
     8a0:	210b9404 	addi	r4,r4,11856
     8a4:	00014980 	call	1498 <vListInsertEnd>

	if( pxUnblockedCRCB->uxPriority >= pxCurrentCoRoutine->uxPriority )
     8a8:	e0bffe17 	ldw	r2,-8(fp)
     8ac:	10c00b17 	ldw	r3,44(r2)
     8b0:	d0a01a97 	ldw	r2,-32662(gp)
     8b4:	10800b17 	ldw	r2,44(r2)
     8b8:	18800336 	bltu	r3,r2,8c8 <xCoRoutineRemoveFromEventList+0x6c>
	{
		xReturn = pdTRUE;
     8bc:	00800044 	movi	r2,1
     8c0:	e0bffd15 	stw	r2,-12(fp)
     8c4:	00000106 	br	8cc <xCoRoutineRemoveFromEventList+0x70>
	}
	else
	{
		xReturn = pdFALSE;
     8c8:	e03ffd15 	stw	zero,-12(fp)
	}

	return xReturn;
     8cc:	e0bffd17 	ldw	r2,-12(fp)
}
     8d0:	e037883a 	mov	sp,fp
     8d4:	dfc00117 	ldw	ra,4(sp)
     8d8:	df000017 	ldw	fp,0(sp)
     8dc:	dec00204 	addi	sp,sp,8
     8e0:	f800283a 	ret

000008e4 <xEventGroupCreate>:
static BaseType_t prvTestWaitCondition( const EventBits_t uxCurrentEventBits, const EventBits_t uxBitsToWaitFor, const BaseType_t xWaitForAllBits );

/*-----------------------------------------------------------*/

EventGroupHandle_t xEventGroupCreate( void )
{
     8e4:	defffd04 	addi	sp,sp,-12
     8e8:	dfc00215 	stw	ra,8(sp)
     8ec:	df000115 	stw	fp,4(sp)
     8f0:	df000104 	addi	fp,sp,4
EventGroup_t *pxEventBits;

	pxEventBits = pvPortMalloc( sizeof( EventGroup_t ) );
     8f4:	01000604 	movi	r4,24
     8f8:	0000fd00 	call	fd0 <pvPortMalloc>
     8fc:	e0bfff15 	stw	r2,-4(fp)
	if( pxEventBits != NULL )
     900:	e0bfff17 	ldw	r2,-4(fp)
     904:	10000626 	beq	r2,zero,920 <xEventGroupCreate+0x3c>
	{
		pxEventBits->uxEventBits = 0;
     908:	e0bfff17 	ldw	r2,-4(fp)
     90c:	10000015 	stw	zero,0(r2)
		vListInitialise( &( pxEventBits->xTasksWaitingForBits ) );
     910:	e0bfff17 	ldw	r2,-4(fp)
     914:	10800104 	addi	r2,r2,4
     918:	1009883a 	mov	r4,r2
     91c:	00014040 	call	1404 <vListInitialise>
	else
	{
		traceEVENT_GROUP_CREATE_FAILED();
	}

	return ( EventGroupHandle_t ) pxEventBits;
     920:	e0bfff17 	ldw	r2,-4(fp)
}
     924:	e037883a 	mov	sp,fp
     928:	dfc00117 	ldw	ra,4(sp)
     92c:	df000017 	ldw	fp,0(sp)
     930:	dec00204 	addi	sp,sp,8
     934:	f800283a 	ret

00000938 <xEventGroupSync>:
/*-----------------------------------------------------------*/

EventBits_t xEventGroupSync( EventGroupHandle_t xEventGroup, const EventBits_t uxBitsToSet, const EventBits_t uxBitsToWaitFor, TickType_t xTicksToWait )
{
     938:	defff504 	addi	sp,sp,-44
     93c:	dfc00a15 	stw	ra,40(sp)
     940:	df000915 	stw	fp,36(sp)
     944:	df000904 	addi	fp,sp,36
     948:	e13ffc15 	stw	r4,-16(fp)
     94c:	e17ffd15 	stw	r5,-12(fp)
     950:	e1bffe15 	stw	r6,-8(fp)
     954:	e1ffff15 	stw	r7,-4(fp)
EventBits_t uxOriginalBitValue, uxReturn;
EventGroup_t *pxEventBits = ( EventGroup_t * ) xEventGroup;
     958:	e0bffc17 	ldw	r2,-16(fp)
     95c:	e0bff815 	stw	r2,-32(fp)
BaseType_t xAlreadyYielded;
BaseType_t xTimeoutOccurred = pdFALSE;
     960:	e03ff915 	stw	zero,-28(fp)
	{
		configASSERT( !( ( xTaskGetSchedulerState() == taskSCHEDULER_SUSPENDED ) && ( xTicksToWait != 0 ) ) );
	}
	#endif

	vTaskSuspendAll();
     964:	0002f6c0 	call	2f6c <vTaskSuspendAll>
	{
		uxOriginalBitValue = pxEventBits->uxEventBits;
     968:	e0bff817 	ldw	r2,-32(fp)
     96c:	10800017 	ldw	r2,0(r2)
     970:	e0bffa15 	stw	r2,-24(fp)

		( void ) xEventGroupSetBits( xEventGroup, uxBitsToSet );
     974:	e17ffd17 	ldw	r5,-12(fp)
     978:	e13ffc17 	ldw	r4,-16(fp)
     97c:	0000cf40 	call	cf4 <xEventGroupSetBits>

		if( ( ( uxOriginalBitValue | uxBitsToSet ) & uxBitsToWaitFor ) == uxBitsToWaitFor )
     980:	e0fffa17 	ldw	r3,-24(fp)
     984:	e0bffd17 	ldw	r2,-12(fp)
     988:	1886b03a 	or	r3,r3,r2
     98c:	e0bffe17 	ldw	r2,-8(fp)
     990:	1886703a 	and	r3,r3,r2
     994:	e0bffe17 	ldw	r2,-8(fp)
     998:	18800d1e 	bne	r3,r2,9d0 <xEventGroupSync+0x98>
		{
			/* All the rendezvous bits are now set - no need to block. */
			uxReturn = ( uxOriginalBitValue | uxBitsToSet );
     99c:	e0fffa17 	ldw	r3,-24(fp)
     9a0:	e0bffd17 	ldw	r2,-12(fp)
     9a4:	1884b03a 	or	r2,r3,r2
     9a8:	e0bff715 	stw	r2,-36(fp)

			/* Rendezvous always clear the bits.  They will have been cleared
			already unless this is the only task in the rendezvous. */
			pxEventBits->uxEventBits &= ~uxBitsToWaitFor;
     9ac:	e0bff817 	ldw	r2,-32(fp)
     9b0:	10c00017 	ldw	r3,0(r2)
     9b4:	e0bffe17 	ldw	r2,-8(fp)
     9b8:	0084303a 	nor	r2,zero,r2
     9bc:	1886703a 	and	r3,r3,r2
     9c0:	e0bff817 	ldw	r2,-32(fp)
     9c4:	10c00015 	stw	r3,0(r2)

			xTicksToWait = 0;
     9c8:	e03fff15 	stw	zero,-4(fp)
     9cc:	00000f06 	br	a0c <xEventGroupSync+0xd4>
		}
		else
		{
			if( xTicksToWait != ( TickType_t ) 0 )
     9d0:	e0bfff17 	ldw	r2,-4(fp)
     9d4:	10000a26 	beq	r2,zero,a00 <xEventGroupSync+0xc8>
				traceEVENT_GROUP_SYNC_BLOCK( xEventGroup, uxBitsToSet, uxBitsToWaitFor );

				/* Store the bits that the calling task is waiting for in the
				task's event list item so the kernel knows when a match is
				found.  Then enter the blocked state. */
				vTaskPlaceOnUnorderedEventList( &( pxEventBits->xTasksWaitingForBits ), ( uxBitsToWaitFor | eventCLEAR_EVENTS_ON_EXIT_BIT | eventWAIT_FOR_ALL_BITS ), xTicksToWait );
     9d8:	e0bff817 	ldw	r2,-32(fp)
     9dc:	10c00104 	addi	r3,r2,4
     9e0:	e0bffe17 	ldw	r2,-8(fp)
     9e4:	10814034 	orhi	r2,r2,1280
     9e8:	e1bfff17 	ldw	r6,-4(fp)
     9ec:	100b883a 	mov	r5,r2
     9f0:	1809883a 	mov	r4,r3
     9f4:	00034b40 	call	34b4 <vTaskPlaceOnUnorderedEventList>

				/* This assignment is obsolete as uxReturn will get set after
				the task unblocks, but some compilers mistakenly generate a
				warning about uxReturn being returned without being set if the
				assignment is omitted. */
				uxReturn = 0;
     9f8:	e03ff715 	stw	zero,-36(fp)
     9fc:	00000306 	br	a0c <xEventGroupSync+0xd4>
			}
			else
			{
				/* The rendezvous bits were not set, but no block time was
				specified - just return the current event bit value. */
				uxReturn = pxEventBits->uxEventBits;
     a00:	e0bff817 	ldw	r2,-32(fp)
     a04:	10800017 	ldw	r2,0(r2)
     a08:	e0bff715 	stw	r2,-36(fp)
			}
		}
	}
	xAlreadyYielded = xTaskResumeAll();
     a0c:	0002f980 	call	2f98 <xTaskResumeAll>
     a10:	e0bffb15 	stw	r2,-20(fp)

	if( xTicksToWait != ( TickType_t ) 0 )
     a14:	e0bfff17 	ldw	r2,-4(fp)
     a18:	10002026 	beq	r2,zero,a9c <xEventGroupSync+0x164>
	{
		if( xAlreadyYielded == pdFALSE )
     a1c:	e0bffb17 	ldw	r2,-20(fp)
     a20:	1000011e 	bne	r2,zero,a28 <xEventGroupSync+0xf0>
		{
			portYIELD_WITHIN_API();
     a24:	003b683a 	trap	0

		/* The task blocked to wait for its required bits to be set - at this
		point either the required bits were set or the block time expired.  If
		the required bits were set they will have been stored in the task's
		event list item, and they should now be retrieved then cleared. */
		uxReturn = uxTaskResetEventItemValue();
     a28:	000415c0 	call	415c <uxTaskResetEventItemValue>
     a2c:	e0bff715 	stw	r2,-36(fp)

		if( ( uxReturn & eventUNBLOCKED_DUE_TO_BIT_SET ) == ( EventBits_t ) 0 )
     a30:	e0bff717 	ldw	r2,-36(fp)
     a34:	1080802c 	andhi	r2,r2,512
     a38:	1000131e 	bne	r2,zero,a88 <xEventGroupSync+0x150>
		{
			/* The task timed out, just return the current event bit value. */
			taskENTER_CRITICAL();
     a3c:	00040a80 	call	40a8 <vTaskEnterCritical>
			{
				uxReturn = pxEventBits->uxEventBits;
     a40:	e0bff817 	ldw	r2,-32(fp)
     a44:	10800017 	ldw	r2,0(r2)
     a48:	e0bff715 	stw	r2,-36(fp)

				/* Although the task got here because it timed out before the
				bits it was waiting for were set, it is possible that since it
				unblocked another task has set the bits.  If this is the case
				then it needs to clear the bits before exiting. */
				if( ( uxReturn & uxBitsToWaitFor ) == uxBitsToWaitFor )
     a4c:	e0fff717 	ldw	r3,-36(fp)
     a50:	e0bffe17 	ldw	r2,-8(fp)
     a54:	1886703a 	and	r3,r3,r2
     a58:	e0bffe17 	ldw	r2,-8(fp)
     a5c:	1880071e 	bne	r3,r2,a7c <xEventGroupSync+0x144>
				{
					pxEventBits->uxEventBits &= ~uxBitsToWaitFor;
     a60:	e0bff817 	ldw	r2,-32(fp)
     a64:	10c00017 	ldw	r3,0(r2)
     a68:	e0bffe17 	ldw	r2,-8(fp)
     a6c:	0084303a 	nor	r2,zero,r2
     a70:	1886703a 	and	r3,r3,r2
     a74:	e0bff817 	ldw	r2,-32(fp)
     a78:	10c00015 	stw	r3,0(r2)
				else
				{
					mtCOVERAGE_TEST_MARKER();
				}
			}
			taskEXIT_CRITICAL();
     a7c:	00040fc0 	call	40fc <vTaskExitCritical>

			xTimeoutOccurred = pdTRUE;
     a80:	00800044 	movi	r2,1
     a84:	e0bff915 	stw	r2,-28(fp)
			/* The task unblocked because the bits were set. */
		}

		/* Control bits might be set as the task had blocked should not be
		returned. */
		uxReturn &= ~eventEVENT_BITS_CONTROL_BYTES;
     a88:	e0fff717 	ldw	r3,-36(fp)
     a8c:	00804034 	movhi	r2,256
     a90:	10bfffc4 	addi	r2,r2,-1
     a94:	1884703a 	and	r2,r3,r2
     a98:	e0bff715 	stw	r2,-36(fp)
	}

	traceEVENT_GROUP_SYNC_END( xEventGroup, uxBitsToSet, uxBitsToWaitFor, xTimeoutOccurred );

	return uxReturn;
     a9c:	e0bff717 	ldw	r2,-36(fp)
}
     aa0:	e037883a 	mov	sp,fp
     aa4:	dfc00117 	ldw	ra,4(sp)
     aa8:	df000017 	ldw	fp,0(sp)
     aac:	dec00204 	addi	sp,sp,8
     ab0:	f800283a 	ret

00000ab4 <xEventGroupWaitBits>:
/*-----------------------------------------------------------*/

EventBits_t xEventGroupWaitBits( EventGroupHandle_t xEventGroup, const EventBits_t uxBitsToWaitFor, const BaseType_t xClearOnExit, const BaseType_t xWaitForAllBits, TickType_t xTicksToWait )
{
     ab4:	defff304 	addi	sp,sp,-52
     ab8:	dfc00c15 	stw	ra,48(sp)
     abc:	df000b15 	stw	fp,44(sp)
     ac0:	df000b04 	addi	fp,sp,44
     ac4:	e13ffc15 	stw	r4,-16(fp)
     ac8:	e17ffd15 	stw	r5,-12(fp)
     acc:	e1bffe15 	stw	r6,-8(fp)
     ad0:	e1ffff15 	stw	r7,-4(fp)
EventGroup_t *pxEventBits = ( EventGroup_t * ) xEventGroup;
     ad4:	e0bffc17 	ldw	r2,-16(fp)
     ad8:	e0bff715 	stw	r2,-36(fp)
EventBits_t uxReturn, uxControlBits = 0;
     adc:	e03ff615 	stw	zero,-40(fp)
BaseType_t xWaitConditionMet, xAlreadyYielded;
BaseType_t xTimeoutOccurred = pdFALSE;
     ae0:	e03ff815 	stw	zero,-32(fp)
	{
		configASSERT( !( ( xTaskGetSchedulerState() == taskSCHEDULER_SUSPENDED ) && ( xTicksToWait != 0 ) ) );
	}
	#endif

	vTaskSuspendAll();
     ae4:	0002f6c0 	call	2f6c <vTaskSuspendAll>
	{
		const EventBits_t uxCurrentEventBits = pxEventBits->uxEventBits;
     ae8:	e0bff717 	ldw	r2,-36(fp)
     aec:	10800017 	ldw	r2,0(r2)
     af0:	e0bff915 	stw	r2,-28(fp)

		/* Check to see if the wait condition is already met or not. */
		xWaitConditionMet = prvTestWaitCondition( uxCurrentEventBits, uxBitsToWaitFor, xWaitForAllBits );
     af4:	e1bfff17 	ldw	r6,-4(fp)
     af8:	e17ffd17 	ldw	r5,-12(fp)
     afc:	e13ff917 	ldw	r4,-28(fp)
     b00:	0000f600 	call	f60 <prvTestWaitCondition>
     b04:	e0bffa15 	stw	r2,-24(fp)

		if( xWaitConditionMet != pdFALSE )
     b08:	e0bffa17 	ldw	r2,-24(fp)
     b0c:	10000d26 	beq	r2,zero,b44 <xEventGroupWaitBits+0x90>
		{
			/* The wait condition has already been met so there is no need to
			block. */
			uxReturn = uxCurrentEventBits;
     b10:	e0bff917 	ldw	r2,-28(fp)
     b14:	e0bff515 	stw	r2,-44(fp)
			xTicksToWait = ( TickType_t ) 0;
     b18:	e0000215 	stw	zero,8(fp)

			/* Clear the wait bits if requested to do so. */
			if( xClearOnExit != pdFALSE )
     b1c:	e0bffe17 	ldw	r2,-8(fp)
     b20:	10002026 	beq	r2,zero,ba4 <xEventGroupWaitBits+0xf0>
			{
				pxEventBits->uxEventBits &= ~uxBitsToWaitFor;
     b24:	e0bff717 	ldw	r2,-36(fp)
     b28:	10c00017 	ldw	r3,0(r2)
     b2c:	e0bffd17 	ldw	r2,-12(fp)
     b30:	0084303a 	nor	r2,zero,r2
     b34:	1886703a 	and	r3,r3,r2
     b38:	e0bff717 	ldw	r2,-36(fp)
     b3c:	10c00015 	stw	r3,0(r2)
     b40:	00001806 	br	ba4 <xEventGroupWaitBits+0xf0>
			else
			{
				mtCOVERAGE_TEST_MARKER();
			}
		}
		else if( xTicksToWait == ( TickType_t ) 0 )
     b44:	e0800217 	ldw	r2,8(fp)
     b48:	1000031e 	bne	r2,zero,b58 <xEventGroupWaitBits+0xa4>
		{
			/* The wait condition has not been met, but no block time was
			specified, so just return the current value. */
			uxReturn = uxCurrentEventBits;
     b4c:	e0bff917 	ldw	r2,-28(fp)
     b50:	e0bff515 	stw	r2,-44(fp)
     b54:	00001306 	br	ba4 <xEventGroupWaitBits+0xf0>
		{
			/* The task is going to block to wait for its required bits to be
			set.  uxControlBits are used to remember the specified behaviour of
			this call to xEventGroupWaitBits() - for use when the event bits
			unblock the task. */
			if( xClearOnExit != pdFALSE )
     b58:	e0bffe17 	ldw	r2,-8(fp)
     b5c:	10000326 	beq	r2,zero,b6c <xEventGroupWaitBits+0xb8>
			{
				uxControlBits |= eventCLEAR_EVENTS_ON_EXIT_BIT;
     b60:	e0bff617 	ldw	r2,-40(fp)
     b64:	10804034 	orhi	r2,r2,256
     b68:	e0bff615 	stw	r2,-40(fp)
			else
			{
				mtCOVERAGE_TEST_MARKER();
			}

			if( xWaitForAllBits != pdFALSE )
     b6c:	e0bfff17 	ldw	r2,-4(fp)
     b70:	10000326 	beq	r2,zero,b80 <xEventGroupWaitBits+0xcc>
			{
				uxControlBits |= eventWAIT_FOR_ALL_BITS;
     b74:	e0bff617 	ldw	r2,-40(fp)
     b78:	10810034 	orhi	r2,r2,1024
     b7c:	e0bff615 	stw	r2,-40(fp)
			}

			/* Store the bits that the calling task is waiting for in the
			task's event list item so the kernel knows when a match is
			found.  Then enter the blocked state. */
			vTaskPlaceOnUnorderedEventList( &( pxEventBits->xTasksWaitingForBits ), ( uxBitsToWaitFor | uxControlBits ), xTicksToWait );
     b80:	e0bff717 	ldw	r2,-36(fp)
     b84:	11000104 	addi	r4,r2,4
     b88:	e0fffd17 	ldw	r3,-12(fp)
     b8c:	e0bff617 	ldw	r2,-40(fp)
     b90:	1884b03a 	or	r2,r3,r2
     b94:	e1800217 	ldw	r6,8(fp)
     b98:	100b883a 	mov	r5,r2
     b9c:	00034b40 	call	34b4 <vTaskPlaceOnUnorderedEventList>

			/* This is obsolete as it will get set after the task unblocks, but
			some compilers mistakenly generate a warning about the variable
			being returned without being set if it is not done. */
			uxReturn = 0;
     ba0:	e03ff515 	stw	zero,-44(fp)

			traceEVENT_GROUP_WAIT_BITS_BLOCK( xEventGroup, uxBitsToWaitFor );
		}
	}
	xAlreadyYielded = xTaskResumeAll();
     ba4:	0002f980 	call	2f98 <xTaskResumeAll>
     ba8:	e0bffb15 	stw	r2,-20(fp)

	if( xTicksToWait != ( TickType_t ) 0 )
     bac:	e0800217 	ldw	r2,8(fp)
     bb0:	10002126 	beq	r2,zero,c38 <xEventGroupWaitBits+0x184>
	{
		if( xAlreadyYielded == pdFALSE )
     bb4:	e0bffb17 	ldw	r2,-20(fp)
     bb8:	1000011e 	bne	r2,zero,bc0 <xEventGroupWaitBits+0x10c>
		{
			portYIELD_WITHIN_API();
     bbc:	003b683a 	trap	0

		/* The task blocked to wait for its required bits to be set - at this
		point either the required bits were set or the block time expired.  If
		the required bits were set they will have been stored in the task's
		event list item, and they should now be retrieved then cleared. */
		uxReturn = uxTaskResetEventItemValue();
     bc0:	000415c0 	call	415c <uxTaskResetEventItemValue>
     bc4:	e0bff515 	stw	r2,-44(fp)

		if( ( uxReturn & eventUNBLOCKED_DUE_TO_BIT_SET ) == ( EventBits_t ) 0 )
     bc8:	e0bff517 	ldw	r2,-44(fp)
     bcc:	1080802c 	andhi	r2,r2,512
     bd0:	1000141e 	bne	r2,zero,c24 <xEventGroupWaitBits+0x170>
		{
			taskENTER_CRITICAL();
     bd4:	00040a80 	call	40a8 <vTaskEnterCritical>
			{
				/* The task timed out, just return the current event bit value. */
				uxReturn = pxEventBits->uxEventBits;
     bd8:	e0bff717 	ldw	r2,-36(fp)
     bdc:	10800017 	ldw	r2,0(r2)
     be0:	e0bff515 	stw	r2,-44(fp)

				/* It is possible that the event bits were updated between this
				task leaving the Blocked state and running again. */
				if( prvTestWaitCondition( uxReturn, uxBitsToWaitFor, xWaitForAllBits ) != pdFALSE )
     be4:	e1bfff17 	ldw	r6,-4(fp)
     be8:	e17ffd17 	ldw	r5,-12(fp)
     bec:	e13ff517 	ldw	r4,-44(fp)
     bf0:	0000f600 	call	f60 <prvTestWaitCondition>
     bf4:	10000926 	beq	r2,zero,c1c <xEventGroupWaitBits+0x168>
				{
					if( xClearOnExit != pdFALSE )
     bf8:	e0bffe17 	ldw	r2,-8(fp)
     bfc:	10000726 	beq	r2,zero,c1c <xEventGroupWaitBits+0x168>
					{
						pxEventBits->uxEventBits &= ~uxBitsToWaitFor;
     c00:	e0bff717 	ldw	r2,-36(fp)
     c04:	10c00017 	ldw	r3,0(r2)
     c08:	e0bffd17 	ldw	r2,-12(fp)
     c0c:	0084303a 	nor	r2,zero,r2
     c10:	1886703a 	and	r3,r3,r2
     c14:	e0bff717 	ldw	r2,-36(fp)
     c18:	10c00015 	stw	r3,0(r2)
				else
				{
					mtCOVERAGE_TEST_MARKER();
				}
			}
			taskEXIT_CRITICAL();
     c1c:	00040fc0 	call	40fc <vTaskExitCritical>

			/* Prevent compiler warnings when trace macros are not used. */
			xTimeoutOccurred = pdFALSE;
     c20:	e03ff815 	stw	zero,-32(fp)
		{
			/* The task unblocked because the bits were set. */
		}

		/* The task blocked so control bits may have been set. */
		uxReturn &= ~eventEVENT_BITS_CONTROL_BYTES;
     c24:	e0fff517 	ldw	r3,-44(fp)
     c28:	00804034 	movhi	r2,256
     c2c:	10bfffc4 	addi	r2,r2,-1
     c30:	1884703a 	and	r2,r3,r2
     c34:	e0bff515 	stw	r2,-44(fp)
	}
	traceEVENT_GROUP_WAIT_BITS_END( xEventGroup, uxBitsToWaitFor, xTimeoutOccurred );

	return uxReturn;
     c38:	e0bff517 	ldw	r2,-44(fp)
}
     c3c:	e037883a 	mov	sp,fp
     c40:	dfc00117 	ldw	ra,4(sp)
     c44:	df000017 	ldw	fp,0(sp)
     c48:	dec00204 	addi	sp,sp,8
     c4c:	f800283a 	ret

00000c50 <xEventGroupClearBits>:
/*-----------------------------------------------------------*/

EventBits_t xEventGroupClearBits( EventGroupHandle_t xEventGroup, const EventBits_t uxBitsToClear )
{
     c50:	defffa04 	addi	sp,sp,-24
     c54:	dfc00515 	stw	ra,20(sp)
     c58:	df000415 	stw	fp,16(sp)
     c5c:	df000404 	addi	fp,sp,16
     c60:	e13ffe15 	stw	r4,-8(fp)
     c64:	e17fff15 	stw	r5,-4(fp)
EventGroup_t *pxEventBits = ( EventGroup_t * ) xEventGroup;
     c68:	e0bffe17 	ldw	r2,-8(fp)
     c6c:	e0bffc15 	stw	r2,-16(fp)
	/* Check the user is not attempting to clear the bits used by the kernel
	itself. */
	configASSERT( xEventGroup );
	configASSERT( ( uxBitsToClear & eventEVENT_BITS_CONTROL_BYTES ) == 0 );

	taskENTER_CRITICAL();
     c70:	00040a80 	call	40a8 <vTaskEnterCritical>
	{
		traceEVENT_GROUP_CLEAR_BITS( xEventGroup, uxBitsToClear );

		/* The value returned is the event group value prior to the bits being
		cleared. */
		uxReturn = pxEventBits->uxEventBits;
     c74:	e0bffc17 	ldw	r2,-16(fp)
     c78:	10800017 	ldw	r2,0(r2)
     c7c:	e0bffd15 	stw	r2,-12(fp)

		/* Clear the bits. */
		pxEventBits->uxEventBits &= ~uxBitsToClear;
     c80:	e0bffc17 	ldw	r2,-16(fp)
     c84:	10c00017 	ldw	r3,0(r2)
     c88:	e0bfff17 	ldw	r2,-4(fp)
     c8c:	0084303a 	nor	r2,zero,r2
     c90:	1886703a 	and	r3,r3,r2
     c94:	e0bffc17 	ldw	r2,-16(fp)
     c98:	10c00015 	stw	r3,0(r2)
	}
	taskEXIT_CRITICAL();
     c9c:	00040fc0 	call	40fc <vTaskExitCritical>

	return uxReturn;
     ca0:	e0bffd17 	ldw	r2,-12(fp)
}
     ca4:	e037883a 	mov	sp,fp
     ca8:	dfc00117 	ldw	ra,4(sp)
     cac:	df000017 	ldw	fp,0(sp)
     cb0:	dec00204 	addi	sp,sp,8
     cb4:	f800283a 	ret

00000cb8 <xEventGroupGetBitsFromISR>:

#endif
/*-----------------------------------------------------------*/

EventBits_t xEventGroupGetBitsFromISR( EventGroupHandle_t xEventGroup )
{
     cb8:	defffb04 	addi	sp,sp,-20
     cbc:	df000415 	stw	fp,16(sp)
     cc0:	df000404 	addi	fp,sp,16
     cc4:	e13fff15 	stw	r4,-4(fp)
UBaseType_t uxSavedInterruptStatus;
EventGroup_t *pxEventBits = ( EventGroup_t * ) xEventGroup;
     cc8:	e0bfff17 	ldw	r2,-4(fp)
     ccc:	e0bffc15 	stw	r2,-16(fp)
EventBits_t uxReturn;

	uxSavedInterruptStatus = portSET_INTERRUPT_MASK_FROM_ISR();
     cd0:	e03ffd15 	stw	zero,-12(fp)
	{
		uxReturn = pxEventBits->uxEventBits;
     cd4:	e0bffc17 	ldw	r2,-16(fp)
     cd8:	10800017 	ldw	r2,0(r2)
     cdc:	e0bffe15 	stw	r2,-8(fp)
	}
	portCLEAR_INTERRUPT_MASK_FROM_ISR( uxSavedInterruptStatus );

	return uxReturn;
     ce0:	e0bffe17 	ldw	r2,-8(fp)
}
     ce4:	e037883a 	mov	sp,fp
     ce8:	df000017 	ldw	fp,0(sp)
     cec:	dec00104 	addi	sp,sp,4
     cf0:	f800283a 	ret

00000cf4 <xEventGroupSetBits>:
/*-----------------------------------------------------------*/

EventBits_t xEventGroupSetBits( EventGroupHandle_t xEventGroup, const EventBits_t uxBitsToSet )
{
     cf4:	defff304 	addi	sp,sp,-52
     cf8:	dfc00c15 	stw	ra,48(sp)
     cfc:	df000b15 	stw	fp,44(sp)
     d00:	df000b04 	addi	fp,sp,44
     d04:	e13ffe15 	stw	r4,-8(fp)
     d08:	e17fff15 	stw	r5,-4(fp)
ListItem_t *pxListItem, *pxNext;
ListItem_t const *pxListEnd;
List_t *pxList;
EventBits_t uxBitsToClear = 0, uxBitsWaitedFor, uxControlBits;
     d0c:	e03ff615 	stw	zero,-40(fp)
EventGroup_t *pxEventBits = ( EventGroup_t * ) xEventGroup;
     d10:	e0bffe17 	ldw	r2,-8(fp)
     d14:	e0bff815 	stw	r2,-32(fp)
BaseType_t xMatchFound = pdFALSE;
     d18:	e03ff715 	stw	zero,-36(fp)
	/* Check the user is not attempting to set the bits used by the kernel
	itself. */
	configASSERT( xEventGroup );
	configASSERT( ( uxBitsToSet & eventEVENT_BITS_CONTROL_BYTES ) == 0 );

	pxList = &( pxEventBits->xTasksWaitingForBits );
     d1c:	e0bff817 	ldw	r2,-32(fp)
     d20:	10800104 	addi	r2,r2,4
     d24:	e0bff915 	stw	r2,-28(fp)
	pxListEnd = listGET_END_MARKER( pxList ); /*lint !e826 !e740 The mini list structure is used as the list end to save RAM.  This is checked and valid. */
     d28:	e0bff917 	ldw	r2,-28(fp)
     d2c:	10800204 	addi	r2,r2,8
     d30:	e0bffa15 	stw	r2,-24(fp)
	vTaskSuspendAll();
     d34:	0002f6c0 	call	2f6c <vTaskSuspendAll>
	{
		traceEVENT_GROUP_SET_BITS( xEventGroup, uxBitsToSet );

		pxListItem = listGET_HEAD_ENTRY( pxList );
     d38:	e0bff917 	ldw	r2,-28(fp)
     d3c:	10800317 	ldw	r2,12(r2)
     d40:	e0bff515 	stw	r2,-44(fp)

		/* Set the bits. */
		pxEventBits->uxEventBits |= uxBitsToSet;
     d44:	e0bff817 	ldw	r2,-32(fp)
     d48:	10c00017 	ldw	r3,0(r2)
     d4c:	e0bfff17 	ldw	r2,-4(fp)
     d50:	1886b03a 	or	r3,r3,r2
     d54:	e0bff817 	ldw	r2,-32(fp)
     d58:	10c00015 	stw	r3,0(r2)

		/* See if the new bit value should unblock any tasks. */
		while( pxListItem != pxListEnd )
     d5c:	00003306 	br	e2c <xEventGroupSetBits+0x138>
		{
			pxNext = listGET_NEXT( pxListItem );
     d60:	e0bff517 	ldw	r2,-44(fp)
     d64:	10800117 	ldw	r2,4(r2)
     d68:	e0bffb15 	stw	r2,-20(fp)
			uxBitsWaitedFor = listGET_LIST_ITEM_VALUE( pxListItem );
     d6c:	e0bff517 	ldw	r2,-44(fp)
     d70:	10800017 	ldw	r2,0(r2)
     d74:	e0bffc15 	stw	r2,-16(fp)
			xMatchFound = pdFALSE;
     d78:	e03ff715 	stw	zero,-36(fp)

			/* Split the bits waited for from the control bits. */
			uxControlBits = uxBitsWaitedFor & eventEVENT_BITS_CONTROL_BYTES;
     d7c:	e0bffc17 	ldw	r2,-16(fp)
     d80:	10bfc02c 	andhi	r2,r2,65280
     d84:	e0bffd15 	stw	r2,-12(fp)
			uxBitsWaitedFor &= ~eventEVENT_BITS_CONTROL_BYTES;
     d88:	e0fffc17 	ldw	r3,-16(fp)
     d8c:	00804034 	movhi	r2,256
     d90:	10bfffc4 	addi	r2,r2,-1
     d94:	1884703a 	and	r2,r3,r2
     d98:	e0bffc15 	stw	r2,-16(fp)

			if( ( uxControlBits & eventWAIT_FOR_ALL_BITS ) == ( EventBits_t ) 0 )
     d9c:	e0bffd17 	ldw	r2,-12(fp)
     da0:	1081002c 	andhi	r2,r2,1024
     da4:	1000081e 	bne	r2,zero,dc8 <xEventGroupSetBits+0xd4>
			{
				/* Just looking for single bit being set. */
				if( ( uxBitsWaitedFor & pxEventBits->uxEventBits ) != ( EventBits_t ) 0 )
     da8:	e0bff817 	ldw	r2,-32(fp)
     dac:	10c00017 	ldw	r3,0(r2)
     db0:	e0bffc17 	ldw	r2,-16(fp)
     db4:	1884703a 	and	r2,r3,r2
     db8:	10000b26 	beq	r2,zero,de8 <xEventGroupSetBits+0xf4>
				{
					xMatchFound = pdTRUE;
     dbc:	00800044 	movi	r2,1
     dc0:	e0bff715 	stw	r2,-36(fp)
     dc4:	00000806 	br	de8 <xEventGroupSetBits+0xf4>
				else
				{
					mtCOVERAGE_TEST_MARKER();
				}
			}
			else if( ( uxBitsWaitedFor & pxEventBits->uxEventBits ) == uxBitsWaitedFor )
     dc8:	e0bff817 	ldw	r2,-32(fp)
     dcc:	10c00017 	ldw	r3,0(r2)
     dd0:	e0bffc17 	ldw	r2,-16(fp)
     dd4:	1886703a 	and	r3,r3,r2
     dd8:	e0bffc17 	ldw	r2,-16(fp)
     ddc:	1880021e 	bne	r3,r2,de8 <xEventGroupSetBits+0xf4>
			{
				/* All bits are set. */
				xMatchFound = pdTRUE;
     de0:	00800044 	movi	r2,1
     de4:	e0bff715 	stw	r2,-36(fp)
			else
			{
				/* Need all bits to be set, but not all the bits were set. */
			}

			if( xMatchFound != pdFALSE )
     de8:	e0bff717 	ldw	r2,-36(fp)
     dec:	10000d26 	beq	r2,zero,e24 <xEventGroupSetBits+0x130>
			{
				/* The bits match.  Should the bits be cleared on exit? */
				if( ( uxControlBits & eventCLEAR_EVENTS_ON_EXIT_BIT ) != ( EventBits_t ) 0 )
     df0:	e0bffd17 	ldw	r2,-12(fp)
     df4:	1080402c 	andhi	r2,r2,256
     df8:	10000426 	beq	r2,zero,e0c <xEventGroupSetBits+0x118>
				{
					uxBitsToClear |= uxBitsWaitedFor;
     dfc:	e0fff617 	ldw	r3,-40(fp)
     e00:	e0bffc17 	ldw	r2,-16(fp)
     e04:	1884b03a 	or	r2,r3,r2
     e08:	e0bff615 	stw	r2,-40(fp)
				/* Store the actual event flag value in the task's event list
				item before removing the task from the event list.  The
				eventUNBLOCKED_DUE_TO_BIT_SET bit is set so the task knows
				that is was unblocked due to its required bits matching, rather
				than because it timed out. */
				( void ) xTaskRemoveFromUnorderedEventList( pxListItem, pxEventBits->uxEventBits | eventUNBLOCKED_DUE_TO_BIT_SET );
     e0c:	e0bff817 	ldw	r2,-32(fp)
     e10:	10800017 	ldw	r2,0(r2)
     e14:	10808034 	orhi	r2,r2,512
     e18:	100b883a 	mov	r5,r2
     e1c:	e13ff517 	ldw	r4,-44(fp)
     e20:	00036940 	call	3694 <xTaskRemoveFromUnorderedEventList>
			}

			/* Move onto the next list item.  Note pxListItem->pxNext is not
			used here as the list item may have been removed from the event list
			and inserted into the ready/pending reading list. */
			pxListItem = pxNext;
     e24:	e0bffb17 	ldw	r2,-20(fp)
     e28:	e0bff515 	stw	r2,-44(fp)

		/* Set the bits. */
		pxEventBits->uxEventBits |= uxBitsToSet;

		/* See if the new bit value should unblock any tasks. */
		while( pxListItem != pxListEnd )
     e2c:	e0fff517 	ldw	r3,-44(fp)
     e30:	e0bffa17 	ldw	r2,-24(fp)
     e34:	18bfca1e 	bne	r3,r2,d60 <__alt_data_end+0xf0000d60>
			pxListItem = pxNext;
		}

		/* Clear any bits that matched when the eventCLEAR_EVENTS_ON_EXIT_BIT
		bit was set in the control word. */
		pxEventBits->uxEventBits &= ~uxBitsToClear;
     e38:	e0bff817 	ldw	r2,-32(fp)
     e3c:	10c00017 	ldw	r3,0(r2)
     e40:	e0bff617 	ldw	r2,-40(fp)
     e44:	0084303a 	nor	r2,zero,r2
     e48:	1886703a 	and	r3,r3,r2
     e4c:	e0bff817 	ldw	r2,-32(fp)
     e50:	10c00015 	stw	r3,0(r2)
	}
	( void ) xTaskResumeAll();
     e54:	0002f980 	call	2f98 <xTaskResumeAll>

	return pxEventBits->uxEventBits;
     e58:	e0bff817 	ldw	r2,-32(fp)
     e5c:	10800017 	ldw	r2,0(r2)
}
     e60:	e037883a 	mov	sp,fp
     e64:	dfc00117 	ldw	ra,4(sp)
     e68:	df000017 	ldw	fp,0(sp)
     e6c:	dec00204 	addi	sp,sp,8
     e70:	f800283a 	ret

00000e74 <vEventGroupDelete>:
/*-----------------------------------------------------------*/

void vEventGroupDelete( EventGroupHandle_t xEventGroup )
{
     e74:	defffb04 	addi	sp,sp,-20
     e78:	dfc00415 	stw	ra,16(sp)
     e7c:	df000315 	stw	fp,12(sp)
     e80:	df000304 	addi	fp,sp,12
     e84:	e13fff15 	stw	r4,-4(fp)
EventGroup_t *pxEventBits = ( EventGroup_t * ) xEventGroup;
     e88:	e0bfff17 	ldw	r2,-4(fp)
     e8c:	e0bffd15 	stw	r2,-12(fp)
const List_t *pxTasksWaitingForBits = &( pxEventBits->xTasksWaitingForBits );
     e90:	e0bffd17 	ldw	r2,-12(fp)
     e94:	10800104 	addi	r2,r2,4
     e98:	e0bffe15 	stw	r2,-8(fp)

	vTaskSuspendAll();
     e9c:	0002f6c0 	call	2f6c <vTaskSuspendAll>
	{
		traceEVENT_GROUP_DELETE( xEventGroup );

		while( listCURRENT_LIST_LENGTH( pxTasksWaitingForBits ) > ( UBaseType_t ) 0 )
     ea0:	00000506 	br	eb8 <vEventGroupDelete+0x44>
		{
			/* Unblock the task, returning 0 as the event list is being deleted
			and	cannot therefore have any bits set. */
			configASSERT( pxTasksWaitingForBits->xListEnd.pxNext != ( ListItem_t * ) &( pxTasksWaitingForBits->xListEnd ) );
			( void ) xTaskRemoveFromUnorderedEventList( pxTasksWaitingForBits->xListEnd.pxNext, eventUNBLOCKED_DUE_TO_BIT_SET );
     ea4:	e0bffe17 	ldw	r2,-8(fp)
     ea8:	10800317 	ldw	r2,12(r2)
     eac:	01408034 	movhi	r5,512
     eb0:	1009883a 	mov	r4,r2
     eb4:	00036940 	call	3694 <xTaskRemoveFromUnorderedEventList>

	vTaskSuspendAll();
	{
		traceEVENT_GROUP_DELETE( xEventGroup );

		while( listCURRENT_LIST_LENGTH( pxTasksWaitingForBits ) > ( UBaseType_t ) 0 )
     eb8:	e0bffe17 	ldw	r2,-8(fp)
     ebc:	10800017 	ldw	r2,0(r2)
     ec0:	103ff81e 	bne	r2,zero,ea4 <__alt_data_end+0xf0000ea4>
			and	cannot therefore have any bits set. */
			configASSERT( pxTasksWaitingForBits->xListEnd.pxNext != ( ListItem_t * ) &( pxTasksWaitingForBits->xListEnd ) );
			( void ) xTaskRemoveFromUnorderedEventList( pxTasksWaitingForBits->xListEnd.pxNext, eventUNBLOCKED_DUE_TO_BIT_SET );
		}

		vPortFree( pxEventBits );
     ec4:	e13ffd17 	ldw	r4,-12(fp)
     ec8:	00011500 	call	1150 <vPortFree>
	}
	( void ) xTaskResumeAll();
     ecc:	0002f980 	call	2f98 <xTaskResumeAll>
}
     ed0:	0001883a 	nop
     ed4:	e037883a 	mov	sp,fp
     ed8:	dfc00117 	ldw	ra,4(sp)
     edc:	df000017 	ldw	fp,0(sp)
     ee0:	dec00204 	addi	sp,sp,8
     ee4:	f800283a 	ret

00000ee8 <vEventGroupSetBitsCallback>:
/*-----------------------------------------------------------*/

/* For internal use only - execute a 'set bits' command that was pended from
an interrupt. */
void vEventGroupSetBitsCallback( void *pvEventGroup, const uint32_t ulBitsToSet )
{
     ee8:	defffc04 	addi	sp,sp,-16
     eec:	dfc00315 	stw	ra,12(sp)
     ef0:	df000215 	stw	fp,8(sp)
     ef4:	df000204 	addi	fp,sp,8
     ef8:	e13ffe15 	stw	r4,-8(fp)
     efc:	e17fff15 	stw	r5,-4(fp)
	( void ) xEventGroupSetBits( pvEventGroup, ( EventBits_t ) ulBitsToSet );
     f00:	e17fff17 	ldw	r5,-4(fp)
     f04:	e13ffe17 	ldw	r4,-8(fp)
     f08:	0000cf40 	call	cf4 <xEventGroupSetBits>
}
     f0c:	0001883a 	nop
     f10:	e037883a 	mov	sp,fp
     f14:	dfc00117 	ldw	ra,4(sp)
     f18:	df000017 	ldw	fp,0(sp)
     f1c:	dec00204 	addi	sp,sp,8
     f20:	f800283a 	ret

00000f24 <vEventGroupClearBitsCallback>:
/*-----------------------------------------------------------*/

/* For internal use only - execute a 'clear bits' command that was pended from
an interrupt. */
void vEventGroupClearBitsCallback( void *pvEventGroup, const uint32_t ulBitsToClear )
{
     f24:	defffc04 	addi	sp,sp,-16
     f28:	dfc00315 	stw	ra,12(sp)
     f2c:	df000215 	stw	fp,8(sp)
     f30:	df000204 	addi	fp,sp,8
     f34:	e13ffe15 	stw	r4,-8(fp)
     f38:	e17fff15 	stw	r5,-4(fp)
	( void ) xEventGroupClearBits( pvEventGroup, ( EventBits_t ) ulBitsToClear );
     f3c:	e17fff17 	ldw	r5,-4(fp)
     f40:	e13ffe17 	ldw	r4,-8(fp)
     f44:	0000c500 	call	c50 <xEventGroupClearBits>
}
     f48:	0001883a 	nop
     f4c:	e037883a 	mov	sp,fp
     f50:	dfc00117 	ldw	ra,4(sp)
     f54:	df000017 	ldw	fp,0(sp)
     f58:	dec00204 	addi	sp,sp,8
     f5c:	f800283a 	ret

00000f60 <prvTestWaitCondition>:
/*-----------------------------------------------------------*/

static BaseType_t prvTestWaitCondition( const EventBits_t uxCurrentEventBits, const EventBits_t uxBitsToWaitFor, const BaseType_t xWaitForAllBits )
{
     f60:	defffb04 	addi	sp,sp,-20
     f64:	df000415 	stw	fp,16(sp)
     f68:	df000404 	addi	fp,sp,16
     f6c:	e13ffd15 	stw	r4,-12(fp)
     f70:	e17ffe15 	stw	r5,-8(fp)
     f74:	e1bfff15 	stw	r6,-4(fp)
BaseType_t xWaitConditionMet = pdFALSE;
     f78:	e03ffc15 	stw	zero,-16(fp)

	if( xWaitForAllBits == pdFALSE )
     f7c:	e0bfff17 	ldw	r2,-4(fp)
     f80:	1000071e 	bne	r2,zero,fa0 <prvTestWaitCondition+0x40>
	{
		/* Task only has to wait for one bit within uxBitsToWaitFor to be
		set.  Is one already set? */
		if( ( uxCurrentEventBits & uxBitsToWaitFor ) != ( EventBits_t ) 0 )
     f84:	e0fffd17 	ldw	r3,-12(fp)
     f88:	e0bffe17 	ldw	r2,-8(fp)
     f8c:	1884703a 	and	r2,r3,r2
     f90:	10000a26 	beq	r2,zero,fbc <prvTestWaitCondition+0x5c>
		{
			xWaitConditionMet = pdTRUE;
     f94:	00800044 	movi	r2,1
     f98:	e0bffc15 	stw	r2,-16(fp)
     f9c:	00000706 	br	fbc <prvTestWaitCondition+0x5c>
	}
	else
	{
		/* Task has to wait for all the bits in uxBitsToWaitFor to be set.
		Are they set already? */
		if( ( uxCurrentEventBits & uxBitsToWaitFor ) == uxBitsToWaitFor )
     fa0:	e0fffd17 	ldw	r3,-12(fp)
     fa4:	e0bffe17 	ldw	r2,-8(fp)
     fa8:	1886703a 	and	r3,r3,r2
     fac:	e0bffe17 	ldw	r2,-8(fp)
     fb0:	1880021e 	bne	r3,r2,fbc <prvTestWaitCondition+0x5c>
		{
			xWaitConditionMet = pdTRUE;
     fb4:	00800044 	movi	r2,1
     fb8:	e0bffc15 	stw	r2,-16(fp)
		{
			mtCOVERAGE_TEST_MARKER();
		}
	}

	return xWaitConditionMet;
     fbc:	e0bffc17 	ldw	r2,-16(fp)
}
     fc0:	e037883a 	mov	sp,fp
     fc4:	df000017 	ldw	fp,0(sp)
     fc8:	dec00104 	addi	sp,sp,4
     fcc:	f800283a 	ret

00000fd0 <pvPortMalloc>:
/* STATIC FUNCTIONS ARE DEFINED AS MACROS TO MINIMIZE THE FUNCTION CALL DEPTH. */

/*-----------------------------------------------------------*/

void *pvPortMalloc( size_t xWantedSize )
{
     fd0:	defff904 	addi	sp,sp,-28
     fd4:	dfc00615 	stw	ra,24(sp)
     fd8:	df000515 	stw	fp,20(sp)
     fdc:	df000504 	addi	fp,sp,20
     fe0:	e13fff15 	stw	r4,-4(fp)
xBlockLink *pxBlock, *pxPreviousBlock, *pxNewBlockLink;
void *pvReturn = NULL;
     fe4:	e03ffd15 	stw	zero,-12(fp)

        vTaskSuspendAll();
     fe8:	0002f6c0 	call	2f6c <vTaskSuspendAll>
        {
                /* If this is the first call to malloc then the heap will require
                initialisation to setup the list of free blocks. */
                if( pxEnd == NULL )
     fec:	d0a02197 	ldw	r2,-32634(gp)
     ff0:	1000011e 	bne	r2,zero,ff8 <pvPortMalloc+0x28>
                {
                        prvHeapInit();
     ff4:	00012100 	call	1210 <prvHeapInit>
                }

                /* The wanted size is increased so it can contain a xBlockLink
                structure in addition to the requested amount of bytes. */
                if( xWantedSize > 0 )
     ff8:	e0bfff17 	ldw	r2,-4(fp)
     ffc:	10000d26 	beq	r2,zero,1034 <pvPortMalloc+0x64>
                {
                        xWantedSize += heapSTRUCT_SIZE;
    1000:	00800304 	movi	r2,12
    1004:	10bfffcc 	andi	r2,r2,65535
    1008:	e0ffff17 	ldw	r3,-4(fp)
    100c:	1885883a 	add	r2,r3,r2
    1010:	e0bfff15 	stw	r2,-4(fp)

                        /* Ensure that blocks are always aligned to the required number of
                        bytes. */
                        if( xWantedSize & portBYTE_ALIGNMENT_MASK )
    1014:	e0bfff17 	ldw	r2,-4(fp)
    1018:	108000cc 	andi	r2,r2,3
    101c:	10000526 	beq	r2,zero,1034 <pvPortMalloc+0x64>
                        {
                                /* Byte alignment required. */
                                xWantedSize += ( portBYTE_ALIGNMENT - ( xWantedSize & portBYTE_ALIGNMENT_MASK ) );
    1020:	e0ffff17 	ldw	r3,-4(fp)
    1024:	00bfff04 	movi	r2,-4
    1028:	1884703a 	and	r2,r3,r2
    102c:	10800104 	addi	r2,r2,4
    1030:	e0bfff15 	stw	r2,-4(fp)
                        }
                }

                if( ( xWantedSize > 0 ) && ( xWantedSize < xTotalHeapSize ) )
    1034:	e0bfff17 	ldw	r2,-4(fp)
    1038:	10003e26 	beq	r2,zero,1134 <pvPortMalloc+0x164>
    103c:	00800234 	movhi	r2,8
    1040:	10b40004 	addi	r2,r2,-12288
    1044:	e0ffff17 	ldw	r3,-4(fp)
    1048:	18803a2e 	bgeu	r3,r2,1134 <pvPortMalloc+0x164>
                {
                        /* Traverse the list from the start     (lowest address) block until one
                        of adequate size is found. */
                        pxPreviousBlock = &xStart;
    104c:	d0a01f84 	addi	r2,gp,-32642
    1050:	e0bffc15 	stw	r2,-16(fp)
                        pxBlock = xStart.pxNextFreeBlock;
    1054:	d0a01f97 	ldw	r2,-32642(gp)
    1058:	e0bffb15 	stw	r2,-20(fp)
                        while( ( pxBlock->xBlockSize < xWantedSize ) && ( pxBlock->pxNextFreeBlock != NULL ) )
    105c:	00000506 	br	1074 <pvPortMalloc+0xa4>
                        {
                                pxPreviousBlock = pxBlock;
    1060:	e0bffb17 	ldw	r2,-20(fp)
    1064:	e0bffc15 	stw	r2,-16(fp)
                                pxBlock = pxBlock->pxNextFreeBlock;
    1068:	e0bffb17 	ldw	r2,-20(fp)
    106c:	10800017 	ldw	r2,0(r2)
    1070:	e0bffb15 	stw	r2,-20(fp)
                {
                        /* Traverse the list from the start     (lowest address) block until one
                        of adequate size is found. */
                        pxPreviousBlock = &xStart;
                        pxBlock = xStart.pxNextFreeBlock;
                        while( ( pxBlock->xBlockSize < xWantedSize ) && ( pxBlock->pxNextFreeBlock != NULL ) )
    1074:	e0bffb17 	ldw	r2,-20(fp)
    1078:	10c00117 	ldw	r3,4(r2)
    107c:	e0bfff17 	ldw	r2,-4(fp)
    1080:	1880032e 	bgeu	r3,r2,1090 <pvPortMalloc+0xc0>
    1084:	e0bffb17 	ldw	r2,-20(fp)
    1088:	10800017 	ldw	r2,0(r2)
    108c:	103ff41e 	bne	r2,zero,1060 <__alt_data_end+0xf0001060>
                                pxBlock = pxBlock->pxNextFreeBlock;
                        }

                        /* If the end marker was reached then a block of adequate size was
                        not found. */
                        if( pxBlock != pxEnd )
    1090:	d0a02197 	ldw	r2,-32634(gp)
    1094:	e0fffb17 	ldw	r3,-20(fp)
    1098:	18802626 	beq	r3,r2,1134 <pvPortMalloc+0x164>
                        {
                                /* Return the memory space - jumping over the xBlockLink structure
                                at its start. */
                                pvReturn = ( void * ) ( ( ( unsigned char * ) pxPreviousBlock->pxNextFreeBlock ) + heapSTRUCT_SIZE );
    109c:	e0bffc17 	ldw	r2,-16(fp)
    10a0:	10c00017 	ldw	r3,0(r2)
    10a4:	00800304 	movi	r2,12
    10a8:	10bfffcc 	andi	r2,r2,65535
    10ac:	1885883a 	add	r2,r3,r2
    10b0:	e0bffd15 	stw	r2,-12(fp)

                                /* This block is being returned for use so must be taken out of
                                the     list of free blocks. */
                                pxPreviousBlock->pxNextFreeBlock = pxBlock->pxNextFreeBlock;
    10b4:	e0bffb17 	ldw	r2,-20(fp)
    10b8:	10c00017 	ldw	r3,0(r2)
    10bc:	e0bffc17 	ldw	r2,-16(fp)
    10c0:	10c00015 	stw	r3,0(r2)

                                /* If the block is larger than required it can be split into two. */
                                if( ( pxBlock->xBlockSize - xWantedSize ) > heapMINIMUM_BLOCK_SIZE )
    10c4:	e0bffb17 	ldw	r2,-20(fp)
    10c8:	10c00117 	ldw	r3,4(r2)
    10cc:	e0bfff17 	ldw	r2,-4(fp)
    10d0:	1887c83a 	sub	r3,r3,r2
    10d4:	00800304 	movi	r2,12
    10d8:	10bfffcc 	andi	r2,r2,65535
    10dc:	1085883a 	add	r2,r2,r2
    10e0:	10c00f2e 	bgeu	r2,r3,1120 <pvPortMalloc+0x150>
                                {
                                        /* This block is to be split into two.  Create a new block
                                        following the number of bytes requested. The void cast is
                                        used to prevent byte alignment warnings from the compiler. */
                                        pxNewBlockLink = ( void * ) ( ( ( unsigned char * ) pxBlock ) + xWantedSize );
    10e4:	e0fffb17 	ldw	r3,-20(fp)
    10e8:	e0bfff17 	ldw	r2,-4(fp)
    10ec:	1885883a 	add	r2,r3,r2
    10f0:	e0bffe15 	stw	r2,-8(fp)

                                        /* Calculate the sizes of two blocks split from the single
                                        block. */
                                        pxNewBlockLink->xBlockSize = pxBlock->xBlockSize - xWantedSize;
    10f4:	e0bffb17 	ldw	r2,-20(fp)
    10f8:	10c00117 	ldw	r3,4(r2)
    10fc:	e0bfff17 	ldw	r2,-4(fp)
    1100:	1887c83a 	sub	r3,r3,r2
    1104:	e0bffe17 	ldw	r2,-8(fp)
    1108:	10c00115 	stw	r3,4(r2)
                                        pxBlock->xBlockSize = xWantedSize;
    110c:	e0bffb17 	ldw	r2,-20(fp)
    1110:	e0ffff17 	ldw	r3,-4(fp)
    1114:	10c00115 	stw	r3,4(r2)

                                        /* Insert the new block into the list of free blocks. */
                                        prvInsertBlockIntoFreeList( ( pxNewBlockLink ) );
    1118:	e13ffe17 	ldw	r4,-8(fp)
    111c:	00012d00 	call	12d0 <prvInsertBlockIntoFreeList>
                                }

                                xFreeBytesRemaining -= pxBlock->xBlockSize;
    1120:	d0e00297 	ldw	r3,-32758(gp)
    1124:	e0bffb17 	ldw	r2,-20(fp)
    1128:	10800117 	ldw	r2,4(r2)
    112c:	1885c83a 	sub	r2,r3,r2
    1130:	d0a00295 	stw	r2,-32758(gp)
                        }
                }
        }
        xTaskResumeAll();
    1134:	0002f980 	call	2f98 <xTaskResumeAll>
                        vApplicationMallocFailedHook();
                }
        }
        #endif

        return pvReturn;
    1138:	e0bffd17 	ldw	r2,-12(fp)
}
    113c:	e037883a 	mov	sp,fp
    1140:	dfc00117 	ldw	ra,4(sp)
    1144:	df000017 	ldw	fp,0(sp)
    1148:	dec00204 	addi	sp,sp,8
    114c:	f800283a 	ret

00001150 <vPortFree>:
/*-----------------------------------------------------------*/

void vPortFree( void *pv )
{
    1150:	defffb04 	addi	sp,sp,-20
    1154:	dfc00415 	stw	ra,16(sp)
    1158:	df000315 	stw	fp,12(sp)
    115c:	df000304 	addi	fp,sp,12
    1160:	e13fff15 	stw	r4,-4(fp)
unsigned char *puc = ( unsigned char * ) pv;
    1164:	e0bfff17 	ldw	r2,-4(fp)
    1168:	e0bffd15 	stw	r2,-12(fp)
xBlockLink *pxLink;

        if( pv != NULL )
    116c:	e0bfff17 	ldw	r2,-4(fp)
    1170:	10001126 	beq	r2,zero,11b8 <vPortFree+0x68>
        {
                /* The memory being freed will have an xBlockLink structure immediately
                before it. */
                puc -= heapSTRUCT_SIZE;
    1174:	00800304 	movi	r2,12
    1178:	10bfffcc 	andi	r2,r2,65535
    117c:	0085c83a 	sub	r2,zero,r2
    1180:	e0fffd17 	ldw	r3,-12(fp)
    1184:	1885883a 	add	r2,r3,r2
    1188:	e0bffd15 	stw	r2,-12(fp)

                /* This casting is to keep the compiler from issuing warnings. */
                pxLink = ( void * ) puc;
    118c:	e0bffd17 	ldw	r2,-12(fp)
    1190:	e0bffe15 	stw	r2,-8(fp)

                vTaskSuspendAll();
    1194:	0002f6c0 	call	2f6c <vTaskSuspendAll>
                {
                        /* Add this block to the list of free blocks. */
                        xFreeBytesRemaining += pxLink->xBlockSize;
    1198:	e0bffe17 	ldw	r2,-8(fp)
    119c:	10c00117 	ldw	r3,4(r2)
    11a0:	d0a00297 	ldw	r2,-32758(gp)
    11a4:	1885883a 	add	r2,r3,r2
    11a8:	d0a00295 	stw	r2,-32758(gp)
                        prvInsertBlockIntoFreeList( ( ( xBlockLink * ) pxLink ) );
    11ac:	e13ffe17 	ldw	r4,-8(fp)
    11b0:	00012d00 	call	12d0 <prvInsertBlockIntoFreeList>
                }
                xTaskResumeAll();
    11b4:	0002f980 	call	2f98 <xTaskResumeAll>
        }
}
    11b8:	0001883a 	nop
    11bc:	e037883a 	mov	sp,fp
    11c0:	dfc00117 	ldw	ra,4(sp)
    11c4:	df000017 	ldw	fp,0(sp)
    11c8:	dec00204 	addi	sp,sp,8
    11cc:	f800283a 	ret

000011d0 <xPortGetFreeHeapSize>:
/*-----------------------------------------------------------*/

size_t xPortGetFreeHeapSize( void )
{
    11d0:	deffff04 	addi	sp,sp,-4
    11d4:	df000015 	stw	fp,0(sp)
    11d8:	d839883a 	mov	fp,sp
        return xFreeBytesRemaining;
    11dc:	d0a00297 	ldw	r2,-32758(gp)
}
    11e0:	e037883a 	mov	sp,fp
    11e4:	df000017 	ldw	fp,0(sp)
    11e8:	dec00104 	addi	sp,sp,4
    11ec:	f800283a 	ret

000011f0 <vPortInitialiseBlocks>:
/*-----------------------------------------------------------*/

void vPortInitialiseBlocks( void )
{
    11f0:	deffff04 	addi	sp,sp,-4
    11f4:	df000015 	stw	fp,0(sp)
    11f8:	d839883a 	mov	fp,sp
        /* This just exists to keep the linker quiet. */
}
    11fc:	0001883a 	nop
    1200:	e037883a 	mov	sp,fp
    1204:	df000017 	ldw	fp,0(sp)
    1208:	dec00104 	addi	sp,sp,4
    120c:	f800283a 	ret

00001210 <prvHeapInit>:
/*-----------------------------------------------------------*/

static void prvHeapInit( void )
{
    1210:	defffd04 	addi	sp,sp,-12
    1214:	df000215 	stw	fp,8(sp)
    1218:	df000204 	addi	fp,sp,8
        /* Ensure the start of the heap is aligned. */
        configASSERT( ( ( ( unsigned long ) xHeap.ucHeap ) & ( ( unsigned long ) portBYTE_ALIGNMENT_MASK ) ) == 0UL );

        /* xStart is used to hold a pointer to the first item in the list of free
        blocks.  The void cast is used to prevent compiler warnings. */
        xStart.pxNextFreeBlock = ( void * ) xHeap.ucHeap;
    121c:	00820034 	movhi	r2,2048
    1220:	108b9904 	addi	r2,r2,11876
    1224:	d0a01f95 	stw	r2,-32642(gp)
        xStart.xBlockSize = ( size_t ) 0;
    1228:	d0202095 	stw	zero,-32638(gp)

        /* pxEnd is used to mark the end of the list of free blocks and is inserted
        at the end of the heap space. */
        pucHeapEnd = xHeap.ucHeap + xTotalHeapSize;
    122c:	00c00234 	movhi	r3,8
    1230:	18f40004 	addi	r3,r3,-12288
    1234:	00820034 	movhi	r2,2048
    1238:	108b9904 	addi	r2,r2,11876
    123c:	1885883a 	add	r2,r3,r2
    1240:	e0bffe15 	stw	r2,-8(fp)
        pucHeapEnd -= heapSTRUCT_SIZE;
    1244:	00800304 	movi	r2,12
    1248:	10bfffcc 	andi	r2,r2,65535
    124c:	0085c83a 	sub	r2,zero,r2
    1250:	e0fffe17 	ldw	r3,-8(fp)
    1254:	1885883a 	add	r2,r3,r2
    1258:	e0bffe15 	stw	r2,-8(fp)
        pxEnd = ( void * ) pucHeapEnd;
    125c:	e0bffe17 	ldw	r2,-8(fp)
    1260:	d0a02195 	stw	r2,-32634(gp)
        configASSERT( ( ( ( unsigned long ) pxEnd ) & ( ( unsigned long ) portBYTE_ALIGNMENT_MASK ) ) == 0UL );
        pxEnd->xBlockSize = 0;
    1264:	d0a02197 	ldw	r2,-32634(gp)
    1268:	10000115 	stw	zero,4(r2)
        pxEnd->pxNextFreeBlock = NULL;
    126c:	d0a02197 	ldw	r2,-32634(gp)
    1270:	10000015 	stw	zero,0(r2)

        /* To start with there is a single free block that is sized to take up the
        entire heap space, minus the space taken by pxEnd. */
        pxFirstFreeBlock = ( void * ) xHeap.ucHeap;
    1274:	00820034 	movhi	r2,2048
    1278:	108b9904 	addi	r2,r2,11876
    127c:	e0bfff15 	stw	r2,-4(fp)
        pxFirstFreeBlock->xBlockSize = xTotalHeapSize - heapSTRUCT_SIZE;
    1280:	00800234 	movhi	r2,8
    1284:	10b40004 	addi	r2,r2,-12288
    1288:	00c00304 	movi	r3,12
    128c:	18ffffcc 	andi	r3,r3,65535
    1290:	10c7c83a 	sub	r3,r2,r3
    1294:	e0bfff17 	ldw	r2,-4(fp)
    1298:	10c00115 	stw	r3,4(r2)
        pxFirstFreeBlock->pxNextFreeBlock = pxEnd;
    129c:	d0e02197 	ldw	r3,-32634(gp)
    12a0:	e0bfff17 	ldw	r2,-4(fp)
    12a4:	10c00015 	stw	r3,0(r2)

        /* The heap now contains pxEnd. */
        xFreeBytesRemaining -= heapSTRUCT_SIZE;
    12a8:	d0e00297 	ldw	r3,-32758(gp)
    12ac:	00800304 	movi	r2,12
    12b0:	10bfffcc 	andi	r2,r2,65535
    12b4:	1885c83a 	sub	r2,r3,r2
    12b8:	d0a00295 	stw	r2,-32758(gp)
}
    12bc:	0001883a 	nop
    12c0:	e037883a 	mov	sp,fp
    12c4:	df000017 	ldw	fp,0(sp)
    12c8:	dec00104 	addi	sp,sp,4
    12cc:	f800283a 	ret

000012d0 <prvInsertBlockIntoFreeList>:
/*-----------------------------------------------------------*/

static void prvInsertBlockIntoFreeList( xBlockLink *pxBlockToInsert )
{
    12d0:	defffc04 	addi	sp,sp,-16
    12d4:	df000315 	stw	fp,12(sp)
    12d8:	df000304 	addi	fp,sp,12
    12dc:	e13fff15 	stw	r4,-4(fp)
xBlockLink *pxIterator;
unsigned char *puc;

        /* Iterate through the list until a block is found that has a higher address
        than the block being inserted. */
        for( pxIterator = &xStart; pxIterator->pxNextFreeBlock < pxBlockToInsert; pxIterator = pxIterator->pxNextFreeBlock )
    12e0:	d0a01f84 	addi	r2,gp,-32642
    12e4:	e0bffd15 	stw	r2,-12(fp)
    12e8:	00000306 	br	12f8 <prvInsertBlockIntoFreeList+0x28>
    12ec:	e0bffd17 	ldw	r2,-12(fp)
    12f0:	10800017 	ldw	r2,0(r2)
    12f4:	e0bffd15 	stw	r2,-12(fp)
    12f8:	e0bffd17 	ldw	r2,-12(fp)
    12fc:	10c00017 	ldw	r3,0(r2)
    1300:	e0bfff17 	ldw	r2,-4(fp)
    1304:	18bff936 	bltu	r3,r2,12ec <__alt_data_end+0xf00012ec>
                /* Nothing to do here, just iterate to the right position. */
        }

        /* Do the block being inserted, and the block it is being inserted after
        make a contiguous block of memory? */
        puc = ( unsigned char * ) pxIterator;
    1308:	e0bffd17 	ldw	r2,-12(fp)
    130c:	e0bffe15 	stw	r2,-8(fp)
        if( ( puc + pxIterator->xBlockSize ) == ( unsigned char * ) pxBlockToInsert )
    1310:	e0bffd17 	ldw	r2,-12(fp)
    1314:	10800117 	ldw	r2,4(r2)
    1318:	e0fffe17 	ldw	r3,-8(fp)
    131c:	1887883a 	add	r3,r3,r2
    1320:	e0bfff17 	ldw	r2,-4(fp)
    1324:	1880091e 	bne	r3,r2,134c <prvInsertBlockIntoFreeList+0x7c>
        {
                pxIterator->xBlockSize += pxBlockToInsert->xBlockSize;
    1328:	e0bffd17 	ldw	r2,-12(fp)
    132c:	10c00117 	ldw	r3,4(r2)
    1330:	e0bfff17 	ldw	r2,-4(fp)
    1334:	10800117 	ldw	r2,4(r2)
    1338:	1887883a 	add	r3,r3,r2
    133c:	e0bffd17 	ldw	r2,-12(fp)
    1340:	10c00115 	stw	r3,4(r2)
                pxBlockToInsert = pxIterator;
    1344:	e0bffd17 	ldw	r2,-12(fp)
    1348:	e0bfff15 	stw	r2,-4(fp)
        }

        /* Do the block being inserted, and the block it is being inserted before
        make a contiguous block of memory? */
        puc = ( unsigned char * ) pxBlockToInsert;
    134c:	e0bfff17 	ldw	r2,-4(fp)
    1350:	e0bffe15 	stw	r2,-8(fp)
        if( ( puc + pxBlockToInsert->xBlockSize ) == ( unsigned char * ) pxIterator->pxNextFreeBlock )
    1354:	e0bfff17 	ldw	r2,-4(fp)
    1358:	10800117 	ldw	r2,4(r2)
    135c:	e0fffe17 	ldw	r3,-8(fp)
    1360:	1887883a 	add	r3,r3,r2
    1364:	e0bffd17 	ldw	r2,-12(fp)
    1368:	10800017 	ldw	r2,0(r2)
    136c:	1880161e 	bne	r3,r2,13c8 <prvInsertBlockIntoFreeList+0xf8>
        {
                if( pxIterator->pxNextFreeBlock != pxEnd )
    1370:	e0bffd17 	ldw	r2,-12(fp)
    1374:	10c00017 	ldw	r3,0(r2)
    1378:	d0a02197 	ldw	r2,-32634(gp)
    137c:	18800e26 	beq	r3,r2,13b8 <prvInsertBlockIntoFreeList+0xe8>
                {
                        /* Form one big block from the two blocks. */
                        pxBlockToInsert->xBlockSize += pxIterator->pxNextFreeBlock->xBlockSize;
    1380:	e0bfff17 	ldw	r2,-4(fp)
    1384:	10c00117 	ldw	r3,4(r2)
    1388:	e0bffd17 	ldw	r2,-12(fp)
    138c:	10800017 	ldw	r2,0(r2)
    1390:	10800117 	ldw	r2,4(r2)
    1394:	1887883a 	add	r3,r3,r2
    1398:	e0bfff17 	ldw	r2,-4(fp)
    139c:	10c00115 	stw	r3,4(r2)
                        pxBlockToInsert->pxNextFreeBlock = pxIterator->pxNextFreeBlock->pxNextFreeBlock;
    13a0:	e0bffd17 	ldw	r2,-12(fp)
    13a4:	10800017 	ldw	r2,0(r2)
    13a8:	10c00017 	ldw	r3,0(r2)
    13ac:	e0bfff17 	ldw	r2,-4(fp)
    13b0:	10c00015 	stw	r3,0(r2)
    13b4:	00000806 	br	13d8 <prvInsertBlockIntoFreeList+0x108>
                }
                else
                {
                        pxBlockToInsert->pxNextFreeBlock = pxEnd;
    13b8:	d0e02197 	ldw	r3,-32634(gp)
    13bc:	e0bfff17 	ldw	r2,-4(fp)
    13c0:	10c00015 	stw	r3,0(r2)
    13c4:	00000406 	br	13d8 <prvInsertBlockIntoFreeList+0x108>
                }
        }
        else
        {
                pxBlockToInsert->pxNextFreeBlock = pxIterator->pxNextFreeBlock;
    13c8:	e0bffd17 	ldw	r2,-12(fp)
    13cc:	10c00017 	ldw	r3,0(r2)
    13d0:	e0bfff17 	ldw	r2,-4(fp)
    13d4:	10c00015 	stw	r3,0(r2)

        /* If the block being inserted plugged a gab, so was merged with the block
        before and the block after, then it's pxNextFreeBlock pointer will have
        already been set, and should not be set here as that would make it point
        to itself. */
        if( pxIterator != pxBlockToInsert )
    13d8:	e0fffd17 	ldw	r3,-12(fp)
    13dc:	e0bfff17 	ldw	r2,-4(fp)
    13e0:	18800326 	beq	r3,r2,13f0 <prvInsertBlockIntoFreeList+0x120>
        {
                pxIterator->pxNextFreeBlock = pxBlockToInsert;
    13e4:	e0bffd17 	ldw	r2,-12(fp)
    13e8:	e0ffff17 	ldw	r3,-4(fp)
    13ec:	10c00015 	stw	r3,0(r2)
        }
}
    13f0:	0001883a 	nop
    13f4:	e037883a 	mov	sp,fp
    13f8:	df000017 	ldw	fp,0(sp)
    13fc:	dec00104 	addi	sp,sp,4
    1400:	f800283a 	ret

00001404 <vListInitialise>:
/*-----------------------------------------------------------
 * PUBLIC LIST API documented in list.h
 *----------------------------------------------------------*/

void vListInitialise( List_t * const pxList )
{
    1404:	defffe04 	addi	sp,sp,-8
    1408:	df000115 	stw	fp,4(sp)
    140c:	df000104 	addi	fp,sp,4
    1410:	e13fff15 	stw	r4,-4(fp)
	/* The list structure contains a list item which is used to mark the
	end of the list.  To initialise the list the list end is inserted
	as the only list entry. */
	pxList->pxIndex = ( ListItem_t * ) &( pxList->xListEnd );			/*lint !e826 !e740 The mini list structure is used as the list end to save RAM.  This is checked and valid. */
    1414:	e0bfff17 	ldw	r2,-4(fp)
    1418:	10c00204 	addi	r3,r2,8
    141c:	e0bfff17 	ldw	r2,-4(fp)
    1420:	10c00115 	stw	r3,4(r2)

	/* The list end value is the highest possible value in the list to
	ensure it remains at the end of the list. */
	pxList->xListEnd.xItemValue = portMAX_DELAY;
    1424:	e0bfff17 	ldw	r2,-4(fp)
    1428:	00ffffc4 	movi	r3,-1
    142c:	10c00215 	stw	r3,8(r2)

	/* The list end next and previous pointers point to itself so we know
	when the list is empty. */
	pxList->xListEnd.pxNext = ( ListItem_t * ) &( pxList->xListEnd );	/*lint !e826 !e740 The mini list structure is used as the list end to save RAM.  This is checked and valid. */
    1430:	e0bfff17 	ldw	r2,-4(fp)
    1434:	10c00204 	addi	r3,r2,8
    1438:	e0bfff17 	ldw	r2,-4(fp)
    143c:	10c00315 	stw	r3,12(r2)
	pxList->xListEnd.pxPrevious = ( ListItem_t * ) &( pxList->xListEnd );/*lint !e826 !e740 The mini list structure is used as the list end to save RAM.  This is checked and valid. */
    1440:	e0bfff17 	ldw	r2,-4(fp)
    1444:	10c00204 	addi	r3,r2,8
    1448:	e0bfff17 	ldw	r2,-4(fp)
    144c:	10c00415 	stw	r3,16(r2)

	pxList->uxNumberOfItems = ( UBaseType_t ) 0U;
    1450:	e0bfff17 	ldw	r2,-4(fp)
    1454:	10000015 	stw	zero,0(r2)

	/* Write known values into the list if
	configUSE_LIST_DATA_INTEGRITY_CHECK_BYTES is set to 1. */
	listSET_LIST_INTEGRITY_CHECK_1_VALUE( pxList );
	listSET_LIST_INTEGRITY_CHECK_2_VALUE( pxList );
}
    1458:	0001883a 	nop
    145c:	e037883a 	mov	sp,fp
    1460:	df000017 	ldw	fp,0(sp)
    1464:	dec00104 	addi	sp,sp,4
    1468:	f800283a 	ret

0000146c <vListInitialiseItem>:
/*-----------------------------------------------------------*/

void vListInitialiseItem( ListItem_t * const pxItem )
{
    146c:	defffe04 	addi	sp,sp,-8
    1470:	df000115 	stw	fp,4(sp)
    1474:	df000104 	addi	fp,sp,4
    1478:	e13fff15 	stw	r4,-4(fp)
	/* Make sure the list item is not recorded as being on a list. */
	pxItem->pvContainer = NULL;
    147c:	e0bfff17 	ldw	r2,-4(fp)
    1480:	10000415 	stw	zero,16(r2)

	/* Write known values into the list item if
	configUSE_LIST_DATA_INTEGRITY_CHECK_BYTES is set to 1. */
	listSET_FIRST_LIST_ITEM_INTEGRITY_CHECK_VALUE( pxItem );
	listSET_SECOND_LIST_ITEM_INTEGRITY_CHECK_VALUE( pxItem );
}
    1484:	0001883a 	nop
    1488:	e037883a 	mov	sp,fp
    148c:	df000017 	ldw	fp,0(sp)
    1490:	dec00104 	addi	sp,sp,4
    1494:	f800283a 	ret

00001498 <vListInsertEnd>:
/*-----------------------------------------------------------*/

void vListInsertEnd( List_t * const pxList, ListItem_t * const pxNewListItem )
{
    1498:	defffc04 	addi	sp,sp,-16
    149c:	df000315 	stw	fp,12(sp)
    14a0:	df000304 	addi	fp,sp,12
    14a4:	e13ffe15 	stw	r4,-8(fp)
    14a8:	e17fff15 	stw	r5,-4(fp)
ListItem_t * const pxIndex = pxList->pxIndex;
    14ac:	e0bffe17 	ldw	r2,-8(fp)
    14b0:	10800117 	ldw	r2,4(r2)
    14b4:	e0bffd15 	stw	r2,-12(fp)
	listTEST_LIST_ITEM_INTEGRITY( pxNewListItem );

	/* Insert a new list item into pxList, but rather than sort the list,
	makes the new list item the last item to be removed by a call to
	listGET_OWNER_OF_NEXT_ENTRY(). */
	pxNewListItem->pxNext = pxIndex;
    14b8:	e0bfff17 	ldw	r2,-4(fp)
    14bc:	e0fffd17 	ldw	r3,-12(fp)
    14c0:	10c00115 	stw	r3,4(r2)
	pxNewListItem->pxPrevious = pxIndex->pxPrevious;
    14c4:	e0bffd17 	ldw	r2,-12(fp)
    14c8:	10c00217 	ldw	r3,8(r2)
    14cc:	e0bfff17 	ldw	r2,-4(fp)
    14d0:	10c00215 	stw	r3,8(r2)
	pxIndex->pxPrevious->pxNext = pxNewListItem;
    14d4:	e0bffd17 	ldw	r2,-12(fp)
    14d8:	10800217 	ldw	r2,8(r2)
    14dc:	e0ffff17 	ldw	r3,-4(fp)
    14e0:	10c00115 	stw	r3,4(r2)
	pxIndex->pxPrevious = pxNewListItem;
    14e4:	e0bffd17 	ldw	r2,-12(fp)
    14e8:	e0ffff17 	ldw	r3,-4(fp)
    14ec:	10c00215 	stw	r3,8(r2)

	/* Remember which list the item is in. */
	pxNewListItem->pvContainer = ( void * ) pxList;
    14f0:	e0bfff17 	ldw	r2,-4(fp)
    14f4:	e0fffe17 	ldw	r3,-8(fp)
    14f8:	10c00415 	stw	r3,16(r2)

	( pxList->uxNumberOfItems )++;
    14fc:	e0bffe17 	ldw	r2,-8(fp)
    1500:	10800017 	ldw	r2,0(r2)
    1504:	10c00044 	addi	r3,r2,1
    1508:	e0bffe17 	ldw	r2,-8(fp)
    150c:	10c00015 	stw	r3,0(r2)
}
    1510:	0001883a 	nop
    1514:	e037883a 	mov	sp,fp
    1518:	df000017 	ldw	fp,0(sp)
    151c:	dec00104 	addi	sp,sp,4
    1520:	f800283a 	ret

00001524 <vListInsert>:
/*-----------------------------------------------------------*/

void vListInsert( List_t * const pxList, ListItem_t * const pxNewListItem )
{
    1524:	defffb04 	addi	sp,sp,-20
    1528:	df000415 	stw	fp,16(sp)
    152c:	df000404 	addi	fp,sp,16
    1530:	e13ffe15 	stw	r4,-8(fp)
    1534:	e17fff15 	stw	r5,-4(fp)
ListItem_t *pxIterator;
const TickType_t xValueOfInsertion = pxNewListItem->xItemValue;
    1538:	e0bfff17 	ldw	r2,-4(fp)
    153c:	10800017 	ldw	r2,0(r2)
    1540:	e0bffd15 	stw	r2,-12(fp)
	new list item should be placed after it.  This ensures that TCB's which are
	stored in ready lists (all of which have the same xItemValue value) get a
	share of the CPU.  However, if the xItemValue is the same as the back marker
	the iteration loop below will not end.  Therefore the value is checked
	first, and the algorithm slightly modified if necessary. */
	if( xValueOfInsertion == portMAX_DELAY )
    1544:	e0bffd17 	ldw	r2,-12(fp)
    1548:	10bfffd8 	cmpnei	r2,r2,-1
    154c:	1000041e 	bne	r2,zero,1560 <vListInsert+0x3c>
	{
		pxIterator = pxList->xListEnd.pxPrevious;
    1550:	e0bffe17 	ldw	r2,-8(fp)
    1554:	10800417 	ldw	r2,16(r2)
    1558:	e0bffc15 	stw	r2,-16(fp)
    155c:	00000c06 	br	1590 <vListInsert+0x6c>
			4) Using a queue or semaphore before it has been initialised or
			   before the scheduler has been started (are interrupts firing
			   before vTaskStartScheduler() has been called?).
		**********************************************************************/

		for( pxIterator = ( ListItem_t * ) &( pxList->xListEnd ); pxIterator->pxNext->xItemValue <= xValueOfInsertion; pxIterator = pxIterator->pxNext ) /*lint !e826 !e740 The mini list structure is used as the list end to save RAM.  This is checked and valid. */
    1560:	e0bffe17 	ldw	r2,-8(fp)
    1564:	10800204 	addi	r2,r2,8
    1568:	e0bffc15 	stw	r2,-16(fp)
    156c:	00000306 	br	157c <vListInsert+0x58>
    1570:	e0bffc17 	ldw	r2,-16(fp)
    1574:	10800117 	ldw	r2,4(r2)
    1578:	e0bffc15 	stw	r2,-16(fp)
    157c:	e0bffc17 	ldw	r2,-16(fp)
    1580:	10800117 	ldw	r2,4(r2)
    1584:	10800017 	ldw	r2,0(r2)
    1588:	e0fffd17 	ldw	r3,-12(fp)
    158c:	18bff82e 	bgeu	r3,r2,1570 <__alt_data_end+0xf0001570>
			/* There is nothing to do here, just iterating to the wanted
			insertion position. */
		}
	}

	pxNewListItem->pxNext = pxIterator->pxNext;
    1590:	e0bffc17 	ldw	r2,-16(fp)
    1594:	10c00117 	ldw	r3,4(r2)
    1598:	e0bfff17 	ldw	r2,-4(fp)
    159c:	10c00115 	stw	r3,4(r2)
	pxNewListItem->pxNext->pxPrevious = pxNewListItem;
    15a0:	e0bfff17 	ldw	r2,-4(fp)
    15a4:	10800117 	ldw	r2,4(r2)
    15a8:	e0ffff17 	ldw	r3,-4(fp)
    15ac:	10c00215 	stw	r3,8(r2)
	pxNewListItem->pxPrevious = pxIterator;
    15b0:	e0bfff17 	ldw	r2,-4(fp)
    15b4:	e0fffc17 	ldw	r3,-16(fp)
    15b8:	10c00215 	stw	r3,8(r2)
	pxIterator->pxNext = pxNewListItem;
    15bc:	e0bffc17 	ldw	r2,-16(fp)
    15c0:	e0ffff17 	ldw	r3,-4(fp)
    15c4:	10c00115 	stw	r3,4(r2)

	/* Remember which list the item is in.  This allows fast removal of the
	item later. */
	pxNewListItem->pvContainer = ( void * ) pxList;
    15c8:	e0bfff17 	ldw	r2,-4(fp)
    15cc:	e0fffe17 	ldw	r3,-8(fp)
    15d0:	10c00415 	stw	r3,16(r2)

	( pxList->uxNumberOfItems )++;
    15d4:	e0bffe17 	ldw	r2,-8(fp)
    15d8:	10800017 	ldw	r2,0(r2)
    15dc:	10c00044 	addi	r3,r2,1
    15e0:	e0bffe17 	ldw	r2,-8(fp)
    15e4:	10c00015 	stw	r3,0(r2)
}
    15e8:	0001883a 	nop
    15ec:	e037883a 	mov	sp,fp
    15f0:	df000017 	ldw	fp,0(sp)
    15f4:	dec00104 	addi	sp,sp,4
    15f8:	f800283a 	ret

000015fc <uxListRemove>:
/*-----------------------------------------------------------*/

UBaseType_t uxListRemove( ListItem_t * const pxItemToRemove )
{
    15fc:	defffd04 	addi	sp,sp,-12
    1600:	df000215 	stw	fp,8(sp)
    1604:	df000204 	addi	fp,sp,8
    1608:	e13fff15 	stw	r4,-4(fp)
/* The list item knows which list it is in.  Obtain the list from the list
item. */
List_t * const pxList = ( List_t * ) pxItemToRemove->pvContainer;
    160c:	e0bfff17 	ldw	r2,-4(fp)
    1610:	10800417 	ldw	r2,16(r2)
    1614:	e0bffe15 	stw	r2,-8(fp)

	pxItemToRemove->pxNext->pxPrevious = pxItemToRemove->pxPrevious;
    1618:	e0bfff17 	ldw	r2,-4(fp)
    161c:	10800117 	ldw	r2,4(r2)
    1620:	e0ffff17 	ldw	r3,-4(fp)
    1624:	18c00217 	ldw	r3,8(r3)
    1628:	10c00215 	stw	r3,8(r2)
	pxItemToRemove->pxPrevious->pxNext = pxItemToRemove->pxNext;
    162c:	e0bfff17 	ldw	r2,-4(fp)
    1630:	10800217 	ldw	r2,8(r2)
    1634:	e0ffff17 	ldw	r3,-4(fp)
    1638:	18c00117 	ldw	r3,4(r3)
    163c:	10c00115 	stw	r3,4(r2)

	/* Make sure the index is left pointing to a valid item. */
	if( pxList->pxIndex == pxItemToRemove )
    1640:	e0bffe17 	ldw	r2,-8(fp)
    1644:	10c00117 	ldw	r3,4(r2)
    1648:	e0bfff17 	ldw	r2,-4(fp)
    164c:	1880041e 	bne	r3,r2,1660 <uxListRemove+0x64>
	{
		pxList->pxIndex = pxItemToRemove->pxPrevious;
    1650:	e0bfff17 	ldw	r2,-4(fp)
    1654:	10c00217 	ldw	r3,8(r2)
    1658:	e0bffe17 	ldw	r2,-8(fp)
    165c:	10c00115 	stw	r3,4(r2)
	else
	{
		mtCOVERAGE_TEST_MARKER();
	}

	pxItemToRemove->pvContainer = NULL;
    1660:	e0bfff17 	ldw	r2,-4(fp)
    1664:	10000415 	stw	zero,16(r2)
	( pxList->uxNumberOfItems )--;
    1668:	e0bffe17 	ldw	r2,-8(fp)
    166c:	10800017 	ldw	r2,0(r2)
    1670:	10ffffc4 	addi	r3,r2,-1
    1674:	e0bffe17 	ldw	r2,-8(fp)
    1678:	10c00015 	stw	r3,0(r2)

	return pxList->uxNumberOfItems;
    167c:	e0bffe17 	ldw	r2,-8(fp)
    1680:	10800017 	ldw	r2,0(r2)
}
    1684:	e037883a 	mov	sp,fp
    1688:	df000017 	ldw	fp,0(sp)
    168c:	dec00104 	addi	sp,sp,4
    1690:	f800283a 	ret

00001694 <vApplicationStackOverflowHook>:
#define configTICK_RATE_HZ 1000
#define configCPU_CLOCK_HZ TIMER1MS_FREQ
#define SYS_CLK_IRQ TIMER1MS_IRQ
//stack overflow hook
void vApplicationStackOverflowHook(TaskHandle_t *pxTask, signed char *pcTaskName )
{
    1694:	defffc04 	addi	sp,sp,-16
    1698:	dfc00315 	stw	ra,12(sp)
    169c:	df000215 	stw	fp,8(sp)
    16a0:	df000204 	addi	fp,sp,8
    16a4:	e13ffe15 	stw	r4,-8(fp)
    16a8:	e17fff15 	stw	r5,-4(fp)
	printf("[free_rtos] Application stack overflow at task: %s\n", pcTaskName);
    16ac:	e17fff17 	ldw	r5,-4(fp)
    16b0:	01020034 	movhi	r4,2048
    16b4:	21000004 	addi	r4,r4,0
    16b8:	00099d40 	call	99d4 <printf>
}
    16bc:	0001883a 	nop
    16c0:	e037883a 	mov	sp,fp
    16c4:	dfc00117 	ldw	ra,4(sp)
    16c8:	df000017 	ldw	fp,0(sp)
    16cc:	dec00204 	addi	sp,sp,8
    16d0:	f800283a 	ret

000016d4 <prvReadGp>:
void vPortSysTickHandler( void * context, alt_u32 id );

/*-----------------------------------------------------------*/

static void prvReadGp( uint32_t *ulValue )
{
    16d4:	defffe04 	addi	sp,sp,-8
    16d8:	df000115 	stw	fp,4(sp)
    16dc:	df000104 	addi	fp,sp,4
    16e0:	e13fff15 	stw	r4,-4(fp)
	asm( "stw gp, (%0)" :: "r"(ulValue) );
    16e4:	e0bfff17 	ldw	r2,-4(fp)
    16e8:	16800015 	stw	gp,0(r2)
}
    16ec:	0001883a 	nop
    16f0:	e037883a 	mov	sp,fp
    16f4:	df000017 	ldw	fp,0(sp)
    16f8:	dec00104 	addi	sp,sp,4
    16fc:	f800283a 	ret

00001700 <pxPortInitialiseStack>:

/* 
 * See header file for description. 
 */
StackType_t *pxPortInitialiseStack( StackType_t *pxTopOfStack, TaskFunction_t pxCode, void *pvParameters )
{    
    1700:	defff904 	addi	sp,sp,-28
    1704:	dfc00615 	stw	ra,24(sp)
    1708:	df000515 	stw	fp,20(sp)
    170c:	df000504 	addi	fp,sp,20
    1710:	e13ffd15 	stw	r4,-12(fp)
    1714:	e17ffe15 	stw	r5,-8(fp)
    1718:	e1bfff15 	stw	r6,-4(fp)
StackType_t *pxFramePointer = pxTopOfStack - 1;
    171c:	e0bffd17 	ldw	r2,-12(fp)
    1720:	10bfff04 	addi	r2,r2,-4
    1724:	e0bffb15 	stw	r2,-20(fp)
StackType_t xGlobalPointer;

    prvReadGp( &xGlobalPointer ); 
    1728:	e0bffc04 	addi	r2,fp,-16
    172c:	1009883a 	mov	r4,r2
    1730:	00016d40 	call	16d4 <prvReadGp>

    /* End of stack marker. */
    *pxTopOfStack = 0xdeadbeef;
    1734:	e0fffd17 	ldw	r3,-12(fp)
    1738:	00b7abb4 	movhi	r2,57006
    173c:	10afbbc4 	addi	r2,r2,-16657
    1740:	18800015 	stw	r2,0(r3)
    pxTopOfStack--;
    1744:	e0bffd17 	ldw	r2,-12(fp)
    1748:	10bfff04 	addi	r2,r2,-4
    174c:	e0bffd15 	stw	r2,-12(fp)
    
    *pxTopOfStack = ( StackType_t ) pxFramePointer; 
    1750:	e0fffb17 	ldw	r3,-20(fp)
    1754:	e0bffd17 	ldw	r2,-12(fp)
    1758:	10c00015 	stw	r3,0(r2)
    pxTopOfStack--;
    175c:	e0bffd17 	ldw	r2,-12(fp)
    1760:	10bfff04 	addi	r2,r2,-4
    1764:	e0bffd15 	stw	r2,-12(fp)
    
    *pxTopOfStack = xGlobalPointer; 
    1768:	e0fffc17 	ldw	r3,-16(fp)
    176c:	e0bffd17 	ldw	r2,-12(fp)
    1770:	10c00015 	stw	r3,0(r2)
    
    /* Space for R23 to R16. */
    pxTopOfStack -= 9;
    1774:	e0bffd17 	ldw	r2,-12(fp)
    1778:	10bff704 	addi	r2,r2,-36
    177c:	e0bffd15 	stw	r2,-12(fp)

    *pxTopOfStack = ( StackType_t ) pxCode; 
    1780:	e0fffe17 	ldw	r3,-8(fp)
    1784:	e0bffd17 	ldw	r2,-12(fp)
    1788:	10c00015 	stw	r3,0(r2)
    pxTopOfStack--;
    178c:	e0bffd17 	ldw	r2,-12(fp)
    1790:	10bfff04 	addi	r2,r2,-4
    1794:	e0bffd15 	stw	r2,-12(fp)

    *pxTopOfStack = portINITIAL_ESTATUS; 
    1798:	e0bffd17 	ldw	r2,-12(fp)
    179c:	00c00044 	movi	r3,1
    17a0:	10c00015 	stw	r3,0(r2)

    /* Space for R15 to R5. */    
    pxTopOfStack -= 12;
    17a4:	e0bffd17 	ldw	r2,-12(fp)
    17a8:	10bff404 	addi	r2,r2,-48
    17ac:	e0bffd15 	stw	r2,-12(fp)
    
    *pxTopOfStack = ( StackType_t ) pvParameters; 
    17b0:	e0ffff17 	ldw	r3,-4(fp)
    17b4:	e0bffd17 	ldw	r2,-12(fp)
    17b8:	10c00015 	stw	r3,0(r2)

    /* Space for R3 to R1, muldiv and RA. */
    pxTopOfStack -= 5;
    17bc:	e0bffd17 	ldw	r2,-12(fp)
    17c0:	10bffb04 	addi	r2,r2,-20
    17c4:	e0bffd15 	stw	r2,-12(fp)
    
    return pxTopOfStack;
    17c8:	e0bffd17 	ldw	r2,-12(fp)
}
    17cc:	e037883a 	mov	sp,fp
    17d0:	dfc00117 	ldw	ra,4(sp)
    17d4:	df000017 	ldw	fp,0(sp)
    17d8:	dec00204 	addi	sp,sp,8
    17dc:	f800283a 	ret

000017e0 <xPortStartScheduler>:

/* 
 * See header file for description. 
 */
BaseType_t xPortStartScheduler( void )
{
    17e0:	defffe04 	addi	sp,sp,-8
    17e4:	dfc00115 	stw	ra,4(sp)
    17e8:	df000015 	stw	fp,0(sp)
    17ec:	d839883a 	mov	fp,sp
	/* Start the timer that generates the tick ISR.  Interrupts are disabled
	here already. */
	prvSetupTimerInterrupt();
    17f0:	00018380 	call	1838 <prvSetupTimerInterrupt>
    17f4:	00800034 	movhi	r2,0
	
	/* Start the first task. */
    asm volatile (  " movia r2, restore_sp_from_pxCurrentTCB        \n"
    17f8:	10803104 	addi	r2,r2,196
    17fc:	1000683a 	jmp	r2
                    " jmp r2                                          " );

	/* Should not get here! */
	return 0;
    1800:	0005883a 	mov	r2,zero
}
    1804:	e037883a 	mov	sp,fp
    1808:	dfc00117 	ldw	ra,4(sp)
    180c:	df000017 	ldw	fp,0(sp)
    1810:	dec00204 	addi	sp,sp,8
    1814:	f800283a 	ret

00001818 <vPortEndScheduler>:
/*-----------------------------------------------------------*/

void vPortEndScheduler( void )
{
    1818:	deffff04 	addi	sp,sp,-4
    181c:	df000015 	stw	fp,0(sp)
    1820:	d839883a 	mov	fp,sp
	/* It is unlikely that the NIOS2 port will require this function as there
	is nothing to return to.  */
}
    1824:	0001883a 	nop
    1828:	e037883a 	mov	sp,fp
    182c:	df000017 	ldw	fp,0(sp)
    1830:	dec00104 	addi	sp,sp,4
    1834:	f800283a 	ret

00001838 <prvSetupTimerInterrupt>:
/*
 * Setup the systick timer to generate the tick interrupts at the required
 * frequency.
 */
void prvSetupTimerInterrupt( void )
{
    1838:	defffe04 	addi	sp,sp,-8
    183c:	dfc00115 	stw	ra,4(sp)
    1840:	df000015 	stw	fp,0(sp)
    1844:	d839883a 	mov	fp,sp
	/* Try to register the interrupt handler. */
	if ( -EINVAL == alt_irq_register( SYS_CLK_IRQ, 0x0, vPortSysTickHandler ) )
    1848:	01800034 	movhi	r6,0
    184c:	31863504 	addi	r6,r6,6356
    1850:	000b883a 	mov	r5,zero
    1854:	0009883a 	mov	r4,zero
    1858:	00019200 	call	1920 <alt_irq_register>
    185c:	10bffa98 	cmpnei	r2,r2,-22
    1860:	1000021e 	bne	r2,zero,186c <prvSetupTimerInterrupt+0x34>
	{ 
		/* Failed to install the Interrupt Handler. */
		asm( "break" );
    1864:	003da03a 	break	0
    1868:	00001006 	br	18ac <prvSetupTimerInterrupt+0x74>
	}
	else
	{
		/* Configure SysTick to interrupt at the requested rate. */
		IOWR_ALTERA_AVALON_TIMER_CONTROL( SYS_CLK_BASE, ALTERA_AVALON_TIMER_CONTROL_STOP_MSK );
    186c:	00c00204 	movi	r3,8
    1870:	00800134 	movhi	r2,4
    1874:	108c1104 	addi	r2,r2,12356
    1878:	10c00035 	stwio	r3,0(r2)
		IOWR_ALTERA_AVALON_TIMER_PERIODL( SYS_CLK_BASE, ( configCPU_CLOCK_HZ / configTICK_RATE_HZ ) & 0xFFFF );
    187c:	00e1a814 	movui	r3,34464
    1880:	00800134 	movhi	r2,4
    1884:	108c1204 	addi	r2,r2,12360
    1888:	10c00035 	stwio	r3,0(r2)
		IOWR_ALTERA_AVALON_TIMER_PERIODH( SYS_CLK_BASE, ( configCPU_CLOCK_HZ / configTICK_RATE_HZ ) >> 16 );
    188c:	00c00044 	movi	r3,1
    1890:	00800134 	movhi	r2,4
    1894:	108c1304 	addi	r2,r2,12364
    1898:	10c00035 	stwio	r3,0(r2)
		IOWR_ALTERA_AVALON_TIMER_CONTROL( SYS_CLK_BASE, ALTERA_AVALON_TIMER_CONTROL_CONT_MSK | ALTERA_AVALON_TIMER_CONTROL_START_MSK | ALTERA_AVALON_TIMER_CONTROL_ITO_MSK );	
    189c:	00c001c4 	movi	r3,7
    18a0:	00800134 	movhi	r2,4
    18a4:	108c1104 	addi	r2,r2,12356
    18a8:	10c00035 	stwio	r3,0(r2)
	} 

	/* Clear any already pending interrupts generated by the Timer. */
	IOWR_ALTERA_AVALON_TIMER_STATUS( SYS_CLK_BASE, ~ALTERA_AVALON_TIMER_STATUS_TO_MSK );
    18ac:	00ffff84 	movi	r3,-2
    18b0:	00800134 	movhi	r2,4
    18b4:	108c1004 	addi	r2,r2,12352
    18b8:	10c00035 	stwio	r3,0(r2)
}
    18bc:	0001883a 	nop
    18c0:	e037883a 	mov	sp,fp
    18c4:	dfc00117 	ldw	ra,4(sp)
    18c8:	df000017 	ldw	fp,0(sp)
    18cc:	dec00204 	addi	sp,sp,8
    18d0:	f800283a 	ret

000018d4 <vPortSysTickHandler>:
/*-----------------------------------------------------------*/

void vPortSysTickHandler( void * context, alt_u32 id )
{
    18d4:	defffc04 	addi	sp,sp,-16
    18d8:	dfc00315 	stw	ra,12(sp)
    18dc:	df000215 	stw	fp,8(sp)
    18e0:	df000204 	addi	fp,sp,8
    18e4:	e13ffe15 	stw	r4,-8(fp)
    18e8:	e17fff15 	stw	r5,-4(fp)
	/* Increment the kernel tick. */
	if( xTaskIncrementTick() != pdFALSE )
    18ec:	00031500 	call	3150 <xTaskIncrementTick>
    18f0:	10000126 	beq	r2,zero,18f8 <vPortSysTickHandler+0x24>
	{
        vTaskSwitchContext();
    18f4:	00033140 	call	3314 <vTaskSwitchContext>
	}
		
	/* Clear the interrupt. */
	IOWR_ALTERA_AVALON_TIMER_STATUS( SYS_CLK_BASE, ~ALTERA_AVALON_TIMER_STATUS_TO_MSK );
    18f8:	00ffff84 	movi	r3,-2
    18fc:	00800134 	movhi	r2,4
    1900:	108c1004 	addi	r2,r2,12352
    1904:	10c00035 	stwio	r3,0(r2)
}
    1908:	0001883a 	nop
    190c:	e037883a 	mov	sp,fp
    1910:	dfc00117 	ldw	ra,4(sp)
    1914:	df000017 	ldw	fp,0(sp)
    1918:	dec00204 	addi	sp,sp,8
    191c:	f800283a 	ret

00001920 <alt_irq_register>:
 * when it is registered. Interrupts should only be enabled after the FreeRTOS.org
 * kernel has its scheduler started so that contexts are saved and switched 
 * correctly.
 */
int alt_irq_register( alt_u32 id, void* context, void (*handler)(void*, alt_u32) )
{
    1920:	defff104 	addi	sp,sp,-60
    1924:	df000e15 	stw	fp,56(sp)
    1928:	df000e04 	addi	fp,sp,56
    192c:	e13ffd15 	stw	r4,-12(fp)
    1930:	e17ffe15 	stw	r5,-8(fp)
    1934:	e1bfff15 	stw	r6,-4(fp)
	int rc = -EINVAL;  
    1938:	00bffa84 	movi	r2,-22
    193c:	e0bff215 	stw	r2,-56(fp)
	alt_irq_context status;

	if (id < ALT_NIRQ)
    1940:	e0bffd17 	ldw	r2,-12(fp)
    1944:	10800828 	cmpgeui	r2,r2,32
    1948:	10004c1e 	bne	r2,zero,1a7c <alt_irq_register+0x15c>
static ALT_INLINE alt_irq_context ALT_ALWAYS_INLINE 
       alt_irq_disable_all (void)
{
  alt_irq_context context;

  NIOS2_READ_STATUS (context);
    194c:	0005303a 	rdctl	r2,status
    1950:	e0bff615 	stw	r2,-40(fp)

  NIOS2_WRITE_STATUS (context & ~NIOS2_STATUS_PIE_MSK);
    1954:	e0fff617 	ldw	r3,-40(fp)
    1958:	00bfff84 	movi	r2,-2
    195c:	1884703a 	and	r2,r3,r2
    1960:	1001703a 	wrctl	status,r2
  
  return context;
    1964:	e0bff617 	ldw	r2,-40(fp)
		 * interrupts are disabled while the handler tables are updated to ensure
		 * that an interrupt doesn't occur while the tables are in an inconsistent
		 * state.
		 */
	
		status = alt_irq_disable_all ();
    1968:	e0bff415 	stw	r2,-48(fp)
	
		alt_irq[id].handler = handler;
    196c:	00820234 	movhi	r2,2056
    1970:	10800c04 	addi	r2,r2,48
    1974:	e0fffd17 	ldw	r3,-12(fp)
    1978:	180690fa 	slli	r3,r3,3
    197c:	10c5883a 	add	r2,r2,r3
    1980:	e0ffff17 	ldw	r3,-4(fp)
    1984:	10c00015 	stw	r3,0(r2)
		alt_irq[id].context = context;
    1988:	00820234 	movhi	r2,2056
    198c:	10800c04 	addi	r2,r2,48
    1990:	e0fffd17 	ldw	r3,-12(fp)
    1994:	180690fa 	slli	r3,r3,3
    1998:	10c5883a 	add	r2,r2,r3
    199c:	10800104 	addi	r2,r2,4
    19a0:	e0fffe17 	ldw	r3,-8(fp)
    19a4:	10c00015 	stw	r3,0(r2)
	
		rc = (handler) ? alt_irq_enable (id): alt_irq_disable (id);
    19a8:	e0bfff17 	ldw	r2,-4(fp)
    19ac:	10001926 	beq	r2,zero,1a14 <alt_irq_register+0xf4>
    19b0:	e0bffd17 	ldw	r2,-12(fp)
    19b4:	e0bff315 	stw	r2,-52(fp)
static ALT_INLINE alt_irq_context ALT_ALWAYS_INLINE 
       alt_irq_disable_all (void)
{
  alt_irq_context context;

  NIOS2_READ_STATUS (context);
    19b8:	0005303a 	rdctl	r2,status
    19bc:	e0bff715 	stw	r2,-36(fp)

  NIOS2_WRITE_STATUS (context & ~NIOS2_STATUS_PIE_MSK);
    19c0:	e0fff717 	ldw	r3,-36(fp)
    19c4:	00bfff84 	movi	r2,-2
    19c8:	1884703a 	and	r2,r3,r2
    19cc:	1001703a 	wrctl	status,r2
  
  return context;
    19d0:	e0bff717 	ldw	r2,-36(fp)
static ALT_INLINE int ALT_ALWAYS_INLINE alt_irq_enable (alt_u32 id)
{
  alt_irq_context  status;
  extern volatile alt_u32 alt_irq_active;

  status = alt_irq_disable_all ();
    19d4:	e0bff815 	stw	r2,-32(fp)

  alt_irq_active |= (1 << id);
    19d8:	00c00044 	movi	r3,1
    19dc:	e0bff317 	ldw	r2,-52(fp)
    19e0:	1884983a 	sll	r2,r3,r2
    19e4:	1007883a 	mov	r3,r2
    19e8:	d0a05497 	ldw	r2,-32430(gp)
    19ec:	1884b03a 	or	r2,r3,r2
    19f0:	d0a05495 	stw	r2,-32430(gp)
  NIOS2_WRITE_IENABLE (alt_irq_active);
    19f4:	d0a05497 	ldw	r2,-32430(gp)
    19f8:	100170fa 	wrctl	ienable,r2
    19fc:	e0bff817 	ldw	r2,-32(fp)
    1a00:	e0bff915 	stw	r2,-28(fp)
  status &= ~NIOS2_STATUS_PIE_MSK;
  status |= (context & NIOS2_STATUS_PIE_MSK);
  
  NIOS2_WRITE_STATUS (status);
#else
  NIOS2_WRITE_STATUS (context);
    1a04:	e0bff917 	ldw	r2,-28(fp)
    1a08:	1001703a 	wrctl	status,r2

  alt_irq_enable_all(status);

  return 0;
    1a0c:	0005883a 	mov	r2,zero
    1a10:	00001906 	br	1a78 <alt_irq_register+0x158>
    1a14:	e0bffd17 	ldw	r2,-12(fp)
    1a18:	e0bff515 	stw	r2,-44(fp)
static ALT_INLINE alt_irq_context ALT_ALWAYS_INLINE 
       alt_irq_disable_all (void)
{
  alt_irq_context context;

  NIOS2_READ_STATUS (context);
    1a1c:	0005303a 	rdctl	r2,status
    1a20:	e0bffa15 	stw	r2,-24(fp)

  NIOS2_WRITE_STATUS (context & ~NIOS2_STATUS_PIE_MSK);
    1a24:	e0fffa17 	ldw	r3,-24(fp)
    1a28:	00bfff84 	movi	r2,-2
    1a2c:	1884703a 	and	r2,r3,r2
    1a30:	1001703a 	wrctl	status,r2
  
  return context;
    1a34:	e0bffa17 	ldw	r2,-24(fp)
static ALT_INLINE int ALT_ALWAYS_INLINE alt_irq_disable (alt_u32 id)
{
  alt_irq_context  status;
  extern volatile alt_u32 alt_irq_active;

  status = alt_irq_disable_all ();
    1a38:	e0bffb15 	stw	r2,-20(fp)

  alt_irq_active &= ~(1 << id);
    1a3c:	00c00044 	movi	r3,1
    1a40:	e0bff517 	ldw	r2,-44(fp)
    1a44:	1884983a 	sll	r2,r3,r2
    1a48:	0084303a 	nor	r2,zero,r2
    1a4c:	1007883a 	mov	r3,r2
    1a50:	d0a05497 	ldw	r2,-32430(gp)
    1a54:	1884703a 	and	r2,r3,r2
    1a58:	d0a05495 	stw	r2,-32430(gp)
  NIOS2_WRITE_IENABLE (alt_irq_active);
    1a5c:	d0a05497 	ldw	r2,-32430(gp)
    1a60:	100170fa 	wrctl	ienable,r2
    1a64:	e0bffb17 	ldw	r2,-20(fp)
    1a68:	e0bffc15 	stw	r2,-16(fp)
  status &= ~NIOS2_STATUS_PIE_MSK;
  status |= (context & NIOS2_STATUS_PIE_MSK);
  
  NIOS2_WRITE_STATUS (status);
#else
  NIOS2_WRITE_STATUS (context);
    1a6c:	e0bffc17 	ldw	r2,-16(fp)
    1a70:	1001703a 	wrctl	status,r2

  alt_irq_enable_all(status);

  return 0;
    1a74:	0005883a 	mov	r2,zero
    1a78:	e0bff215 	stw	r2,-56(fp)
	
		/* alt_irq_enable_all(status); This line is removed to prevent the interrupt from being immediately enabled. */
	}
    
	return rc; 
    1a7c:	e0bff217 	ldw	r2,-56(fp)
}
    1a80:	e037883a 	mov	sp,fp
    1a84:	df000017 	ldw	fp,0(sp)
    1a88:	dec00104 	addi	sp,sp,4
    1a8c:	f800283a 	ret

00001a90 <xQueueGenericReset>:
	}														\
	taskEXIT_CRITICAL()
/*-----------------------------------------------------------*/

BaseType_t xQueueGenericReset( QueueHandle_t xQueue, BaseType_t xNewQueue )
{
    1a90:	defffb04 	addi	sp,sp,-20
    1a94:	dfc00415 	stw	ra,16(sp)
    1a98:	df000315 	stw	fp,12(sp)
    1a9c:	df000304 	addi	fp,sp,12
    1aa0:	e13ffe15 	stw	r4,-8(fp)
    1aa4:	e17fff15 	stw	r5,-4(fp)
Queue_t * const pxQueue = ( Queue_t * ) xQueue;
    1aa8:	e0bffe17 	ldw	r2,-8(fp)
    1aac:	e0bffd15 	stw	r2,-12(fp)

	configASSERT( pxQueue );

	taskENTER_CRITICAL();
    1ab0:	00040a80 	call	40a8 <vTaskEnterCritical>
	{
		pxQueue->pcTail = pxQueue->pcHead + ( pxQueue->uxLength * pxQueue->uxItemSize );
    1ab4:	e0bffd17 	ldw	r2,-12(fp)
    1ab8:	10c00017 	ldw	r3,0(r2)
    1abc:	e0bffd17 	ldw	r2,-12(fp)
    1ac0:	11000f17 	ldw	r4,60(r2)
    1ac4:	e0bffd17 	ldw	r2,-12(fp)
    1ac8:	10801017 	ldw	r2,64(r2)
    1acc:	2085383a 	mul	r2,r4,r2
    1ad0:	1887883a 	add	r3,r3,r2
    1ad4:	e0bffd17 	ldw	r2,-12(fp)
    1ad8:	10c00115 	stw	r3,4(r2)
		pxQueue->uxMessagesWaiting = ( UBaseType_t ) 0U;
    1adc:	e0bffd17 	ldw	r2,-12(fp)
    1ae0:	10000e15 	stw	zero,56(r2)
		pxQueue->pcWriteTo = pxQueue->pcHead;
    1ae4:	e0bffd17 	ldw	r2,-12(fp)
    1ae8:	10c00017 	ldw	r3,0(r2)
    1aec:	e0bffd17 	ldw	r2,-12(fp)
    1af0:	10c00215 	stw	r3,8(r2)
		pxQueue->u.pcReadFrom = pxQueue->pcHead + ( ( pxQueue->uxLength - ( UBaseType_t ) 1U ) * pxQueue->uxItemSize );
    1af4:	e0bffd17 	ldw	r2,-12(fp)
    1af8:	10c00017 	ldw	r3,0(r2)
    1afc:	e0bffd17 	ldw	r2,-12(fp)
    1b00:	10800f17 	ldw	r2,60(r2)
    1b04:	113fffc4 	addi	r4,r2,-1
    1b08:	e0bffd17 	ldw	r2,-12(fp)
    1b0c:	10801017 	ldw	r2,64(r2)
    1b10:	2085383a 	mul	r2,r4,r2
    1b14:	1887883a 	add	r3,r3,r2
    1b18:	e0bffd17 	ldw	r2,-12(fp)
    1b1c:	10c00315 	stw	r3,12(r2)
		pxQueue->xRxLock = queueUNLOCKED;
    1b20:	e0bffd17 	ldw	r2,-12(fp)
    1b24:	00ffffc4 	movi	r3,-1
    1b28:	10c01115 	stw	r3,68(r2)
		pxQueue->xTxLock = queueUNLOCKED;
    1b2c:	e0bffd17 	ldw	r2,-12(fp)
    1b30:	00ffffc4 	movi	r3,-1
    1b34:	10c01215 	stw	r3,72(r2)

		if( xNewQueue == pdFALSE )
    1b38:	e0bfff17 	ldw	r2,-4(fp)
    1b3c:	10000b1e 	bne	r2,zero,1b6c <xQueueGenericReset+0xdc>
			/* If there are tasks blocked waiting to read from the queue, then
			the tasks will remain blocked as after this function exits the queue
			will still be empty.  If there are tasks blocked waiting to write to
			the queue, then one should be unblocked as after this function exits
			it will be possible to write to it. */
			if( listLIST_IS_EMPTY( &( pxQueue->xTasksWaitingToSend ) ) == pdFALSE )
    1b40:	e0bffd17 	ldw	r2,-12(fp)
    1b44:	10800417 	ldw	r2,16(r2)
    1b48:	10001026 	beq	r2,zero,1b8c <xQueueGenericReset+0xfc>
			{
				if( xTaskRemoveFromEventList( &( pxQueue->xTasksWaitingToSend ) ) == pdTRUE )
    1b4c:	e0bffd17 	ldw	r2,-12(fp)
    1b50:	10800404 	addi	r2,r2,16
    1b54:	1009883a 	mov	r4,r2
    1b58:	00035a00 	call	35a0 <xTaskRemoveFromEventList>
    1b5c:	10800058 	cmpnei	r2,r2,1
    1b60:	10000a1e 	bne	r2,zero,1b8c <xQueueGenericReset+0xfc>
				{
					queueYIELD_IF_USING_PREEMPTION();
    1b64:	003b683a 	trap	0
    1b68:	00000806 	br	1b8c <xQueueGenericReset+0xfc>
			}
		}
		else
		{
			/* Ensure the event queues start in the correct state. */
			vListInitialise( &( pxQueue->xTasksWaitingToSend ) );
    1b6c:	e0bffd17 	ldw	r2,-12(fp)
    1b70:	10800404 	addi	r2,r2,16
    1b74:	1009883a 	mov	r4,r2
    1b78:	00014040 	call	1404 <vListInitialise>
			vListInitialise( &( pxQueue->xTasksWaitingToReceive ) );
    1b7c:	e0bffd17 	ldw	r2,-12(fp)
    1b80:	10800904 	addi	r2,r2,36
    1b84:	1009883a 	mov	r4,r2
    1b88:	00014040 	call	1404 <vListInitialise>
		}
	}
	taskEXIT_CRITICAL();
    1b8c:	00040fc0 	call	40fc <vTaskExitCritical>

	/* A value is returned for calling semantic consistency with previous
	versions. */
	return pdPASS;
    1b90:	00800044 	movi	r2,1
}
    1b94:	e037883a 	mov	sp,fp
    1b98:	dfc00117 	ldw	ra,4(sp)
    1b9c:	df000017 	ldw	fp,0(sp)
    1ba0:	dec00204 	addi	sp,sp,8
    1ba4:	f800283a 	ret

00001ba8 <xQueueGenericCreate>:
/*-----------------------------------------------------------*/

QueueHandle_t xQueueGenericCreate( const UBaseType_t uxQueueLength, const UBaseType_t uxItemSize, const uint8_t ucQueueType )
{
    1ba8:	defff704 	addi	sp,sp,-36
    1bac:	dfc00815 	stw	ra,32(sp)
    1bb0:	df000715 	stw	fp,28(sp)
    1bb4:	df000704 	addi	fp,sp,28
    1bb8:	e13ffd15 	stw	r4,-12(fp)
    1bbc:	e17ffe15 	stw	r5,-8(fp)
    1bc0:	3005883a 	mov	r2,r6
    1bc4:	e0bfff05 	stb	r2,-4(fp)
Queue_t *pxNewQueue;
size_t xQueueSizeInBytes;
QueueHandle_t xReturn = NULL;
    1bc8:	e03ffa15 	stw	zero,-24(fp)
	configUSE_TRACE_FACILITY not be set to 1. */
	( void ) ucQueueType;

	configASSERT( uxQueueLength > ( UBaseType_t ) 0 );

	if( uxItemSize == ( UBaseType_t ) 0 )
    1bcc:	e0bffe17 	ldw	r2,-8(fp)
    1bd0:	1000021e 	bne	r2,zero,1bdc <xQueueGenericCreate+0x34>
	{
		/* There is not going to be a queue storage area. */
		xQueueSizeInBytes = ( size_t ) 0;
    1bd4:	e03ff915 	stw	zero,-28(fp)
    1bd8:	00000506 	br	1bf0 <xQueueGenericCreate+0x48>
	}
	else
	{
		/* The queue is one byte longer than asked for to make wrap checking
		easier/faster. */
		xQueueSizeInBytes = ( size_t ) ( uxQueueLength * uxItemSize ) + ( size_t ) 1; /*lint !e961 MISRA exception as the casts are only redundant for some ports. */
    1bdc:	e0fffd17 	ldw	r3,-12(fp)
    1be0:	e0bffe17 	ldw	r2,-8(fp)
    1be4:	1885383a 	mul	r2,r3,r2
    1be8:	10800044 	addi	r2,r2,1
    1bec:	e0bff915 	stw	r2,-28(fp)
	}

	/* Allocate the new queue structure and storage area. */
	pcAllocatedBuffer = ( int8_t * ) pvPortMalloc( sizeof( Queue_t ) + xQueueSizeInBytes );
    1bf0:	e0bff917 	ldw	r2,-28(fp)
    1bf4:	10801304 	addi	r2,r2,76
    1bf8:	1009883a 	mov	r4,r2
    1bfc:	0000fd00 	call	fd0 <pvPortMalloc>
    1c00:	e0bffb15 	stw	r2,-20(fp)

	if( pcAllocatedBuffer != NULL )
    1c04:	e0bffb17 	ldw	r2,-20(fp)
    1c08:	10001726 	beq	r2,zero,1c68 <xQueueGenericCreate+0xc0>
	{
		pxNewQueue = ( Queue_t * ) pcAllocatedBuffer; /*lint !e826 MISRA The buffer cannot be to small because it was dimensioned by sizeof( Queue_t ) + xQueueSizeInBytes. */
    1c0c:	e0bffb17 	ldw	r2,-20(fp)
    1c10:	e0bffc15 	stw	r2,-16(fp)

		if( uxItemSize == ( UBaseType_t ) 0 )
    1c14:	e0bffe17 	ldw	r2,-8(fp)
    1c18:	1000041e 	bne	r2,zero,1c2c <xQueueGenericCreate+0x84>
		{
			/* No RAM was allocated for the queue storage area, but PC head
			cannot be set to NULL because NULL is used as a key to say the queue
			is used as a mutex.  Therefore just set pcHead to point to the queue
			as a benign value that is known to be within the memory map. */
			pxNewQueue->pcHead = ( int8_t * ) pxNewQueue;
    1c1c:	e0bffc17 	ldw	r2,-16(fp)
    1c20:	e0fffc17 	ldw	r3,-16(fp)
    1c24:	10c00015 	stw	r3,0(r2)
    1c28:	00000406 	br	1c3c <xQueueGenericCreate+0x94>
		}
		else
		{
			/* Jump past the queue structure to find the location of the queue
			storage area - adding the padding bytes to get a better alignment. */
			pxNewQueue->pcHead = pcAllocatedBuffer + sizeof( Queue_t );
    1c2c:	e0bffb17 	ldw	r2,-20(fp)
    1c30:	10c01304 	addi	r3,r2,76
    1c34:	e0bffc17 	ldw	r2,-16(fp)
    1c38:	10c00015 	stw	r3,0(r2)
		}

		/* Initialise the queue members as described above where the queue type
		is defined. */
		pxNewQueue->uxLength = uxQueueLength;
    1c3c:	e0bffc17 	ldw	r2,-16(fp)
    1c40:	e0fffd17 	ldw	r3,-12(fp)
    1c44:	10c00f15 	stw	r3,60(r2)
		pxNewQueue->uxItemSize = uxItemSize;
    1c48:	e0bffc17 	ldw	r2,-16(fp)
    1c4c:	e0fffe17 	ldw	r3,-8(fp)
    1c50:	10c01015 	stw	r3,64(r2)
		( void ) xQueueGenericReset( pxNewQueue, pdTRUE );
    1c54:	01400044 	movi	r5,1
    1c58:	e13ffc17 	ldw	r4,-16(fp)
    1c5c:	0001a900 	call	1a90 <xQueueGenericReset>
			pxNewQueue->pxQueueSetContainer = NULL;
		}
		#endif /* configUSE_QUEUE_SETS */

		traceQUEUE_CREATE( pxNewQueue );
		xReturn = pxNewQueue;
    1c60:	e0bffc17 	ldw	r2,-16(fp)
    1c64:	e0bffa15 	stw	r2,-24(fp)
		mtCOVERAGE_TEST_MARKER();
	}

	configASSERT( xReturn );

	return xReturn;
    1c68:	e0bffa17 	ldw	r2,-24(fp)
}
    1c6c:	e037883a 	mov	sp,fp
    1c70:	dfc00117 	ldw	ra,4(sp)
    1c74:	df000017 	ldw	fp,0(sp)
    1c78:	dec00204 	addi	sp,sp,8
    1c7c:	f800283a 	ret

00001c80 <xQueueCreateMutex>:
/*-----------------------------------------------------------*/

#if ( configUSE_MUTEXES == 1 )

	QueueHandle_t xQueueCreateMutex( const uint8_t ucQueueType )
	{
    1c80:	defffc04 	addi	sp,sp,-16
    1c84:	dfc00315 	stw	ra,12(sp)
    1c88:	df000215 	stw	fp,8(sp)
    1c8c:	df000204 	addi	fp,sp,8
    1c90:	2005883a 	mov	r2,r4
    1c94:	e0bfff05 	stb	r2,-4(fp)
		/* Prevent compiler warnings about unused parameters if
		configUSE_TRACE_FACILITY does not equal 1. */
		( void ) ucQueueType;

		/* Allocate the new queue structure. */
		pxNewQueue = ( Queue_t * ) pvPortMalloc( sizeof( Queue_t ) );
    1c98:	01001304 	movi	r4,76
    1c9c:	0000fd00 	call	fd0 <pvPortMalloc>
    1ca0:	e0bffe15 	stw	r2,-8(fp)
		if( pxNewQueue != NULL )
    1ca4:	e0bffe17 	ldw	r2,-8(fp)
    1ca8:	10002226 	beq	r2,zero,1d34 <xQueueCreateMutex+0xb4>
		{
			/* Information required for priority inheritance. */
			pxNewQueue->pxMutexHolder = NULL;
    1cac:	e0bffe17 	ldw	r2,-8(fp)
    1cb0:	10000115 	stw	zero,4(r2)
			pxNewQueue->uxQueueType = queueQUEUE_IS_MUTEX;
    1cb4:	e0bffe17 	ldw	r2,-8(fp)
    1cb8:	10000015 	stw	zero,0(r2)

			/* Queues used as a mutex no data is actually copied into or out
			of the queue. */
			pxNewQueue->pcWriteTo = NULL;
    1cbc:	e0bffe17 	ldw	r2,-8(fp)
    1cc0:	10000215 	stw	zero,8(r2)
			pxNewQueue->u.pcReadFrom = NULL;
    1cc4:	e0bffe17 	ldw	r2,-8(fp)
    1cc8:	10000315 	stw	zero,12(r2)

			/* Each mutex has a length of 1 (like a binary semaphore) and
			an item size of 0 as nothing is actually copied into or out
			of the mutex. */
			pxNewQueue->uxMessagesWaiting = ( UBaseType_t ) 0U;
    1ccc:	e0bffe17 	ldw	r2,-8(fp)
    1cd0:	10000e15 	stw	zero,56(r2)
			pxNewQueue->uxLength = ( UBaseType_t ) 1U;
    1cd4:	e0bffe17 	ldw	r2,-8(fp)
    1cd8:	00c00044 	movi	r3,1
    1cdc:	10c00f15 	stw	r3,60(r2)
			pxNewQueue->uxItemSize = ( UBaseType_t ) 0U;
    1ce0:	e0bffe17 	ldw	r2,-8(fp)
    1ce4:	10001015 	stw	zero,64(r2)
			pxNewQueue->xRxLock = queueUNLOCKED;
    1ce8:	e0bffe17 	ldw	r2,-8(fp)
    1cec:	00ffffc4 	movi	r3,-1
    1cf0:	10c01115 	stw	r3,68(r2)
			pxNewQueue->xTxLock = queueUNLOCKED;
    1cf4:	e0bffe17 	ldw	r2,-8(fp)
    1cf8:	00ffffc4 	movi	r3,-1
    1cfc:	10c01215 	stw	r3,72(r2)
				pxNewQueue->pxQueueSetContainer = NULL;
			}
			#endif

			/* Ensure the event queues start with the correct state. */
			vListInitialise( &( pxNewQueue->xTasksWaitingToSend ) );
    1d00:	e0bffe17 	ldw	r2,-8(fp)
    1d04:	10800404 	addi	r2,r2,16
    1d08:	1009883a 	mov	r4,r2
    1d0c:	00014040 	call	1404 <vListInitialise>
			vListInitialise( &( pxNewQueue->xTasksWaitingToReceive ) );
    1d10:	e0bffe17 	ldw	r2,-8(fp)
    1d14:	10800904 	addi	r2,r2,36
    1d18:	1009883a 	mov	r4,r2
    1d1c:	00014040 	call	1404 <vListInitialise>

			traceCREATE_MUTEX( pxNewQueue );

			/* Start with the semaphore in the expected state. */
			( void ) xQueueGenericSend( pxNewQueue, NULL, ( TickType_t ) 0U, queueSEND_TO_BACK );
    1d20:	000f883a 	mov	r7,zero
    1d24:	000d883a 	mov	r6,zero
    1d28:	000b883a 	mov	r5,zero
    1d2c:	e13ffe17 	ldw	r4,-8(fp)
    1d30:	0001edc0 	call	1edc <xQueueGenericSend>
		{
			traceCREATE_MUTEX_FAILED();
		}

		configASSERT( pxNewQueue );
		return pxNewQueue;
    1d34:	e0bffe17 	ldw	r2,-8(fp)
	}
    1d38:	e037883a 	mov	sp,fp
    1d3c:	dfc00117 	ldw	ra,4(sp)
    1d40:	df000017 	ldw	fp,0(sp)
    1d44:	dec00204 	addi	sp,sp,8
    1d48:	f800283a 	ret

00001d4c <xQueueGiveMutexRecursive>:
/*-----------------------------------------------------------*/

#if ( configUSE_RECURSIVE_MUTEXES == 1 )

	BaseType_t xQueueGiveMutexRecursive( QueueHandle_t xMutex )
	{
    1d4c:	defffa04 	addi	sp,sp,-24
    1d50:	dfc00515 	stw	ra,20(sp)
    1d54:	df000415 	stw	fp,16(sp)
    1d58:	dc000315 	stw	r16,12(sp)
    1d5c:	df000404 	addi	fp,sp,16
    1d60:	e13ffe15 	stw	r4,-8(fp)
	BaseType_t xReturn;
	Queue_t * const pxMutex = ( Queue_t * ) xMutex;
    1d64:	e0bffe17 	ldw	r2,-8(fp)
    1d68:	e0bffd15 	stw	r2,-12(fp)
		change outside of this task.  If this task does not hold the mutex then
		pxMutexHolder can never coincidentally equal the tasks handle, and as
		this is the only condition we are interested in it does not matter if
		pxMutexHolder is accessed simultaneously by another task.  Therefore no
		mutual exclusion is required to test the pxMutexHolder variable. */
		if( pxMutex->pxMutexHolder == ( void * ) xTaskGetCurrentTaskHandle() ) /*lint !e961 Not a redundant cast as TaskHandle_t is a typedef. */
    1d6c:	e0bffd17 	ldw	r2,-12(fp)
    1d70:	14000117 	ldw	r16,4(r2)
    1d74:	0003e100 	call	3e10 <xTaskGetCurrentTaskHandle>
    1d78:	8080101e 	bne	r16,r2,1dbc <xQueueGiveMutexRecursive+0x70>
			/* uxRecursiveCallCount cannot be zero if pxMutexHolder is equal to
			the task handle, therefore no underflow check is required.  Also,
			uxRecursiveCallCount is only modified by the mutex holder, and as
			there can only be one, no mutual exclusion is required to modify the
			uxRecursiveCallCount member. */
			( pxMutex->u.uxRecursiveCallCount )--;
    1d7c:	e0bffd17 	ldw	r2,-12(fp)
    1d80:	10800317 	ldw	r2,12(r2)
    1d84:	10ffffc4 	addi	r3,r2,-1
    1d88:	e0bffd17 	ldw	r2,-12(fp)
    1d8c:	10c00315 	stw	r3,12(r2)

			/* Have we unwound the call count? */
			if( pxMutex->u.uxRecursiveCallCount == ( UBaseType_t ) 0 )
    1d90:	e0bffd17 	ldw	r2,-12(fp)
    1d94:	10800317 	ldw	r2,12(r2)
    1d98:	1000051e 	bne	r2,zero,1db0 <xQueueGiveMutexRecursive+0x64>
			{
				/* Return the mutex.  This will automatically unblock any other
				task that might be waiting to access the mutex. */
				( void ) xQueueGenericSend( pxMutex, NULL, queueMUTEX_GIVE_BLOCK_TIME, queueSEND_TO_BACK );
    1d9c:	000f883a 	mov	r7,zero
    1da0:	000d883a 	mov	r6,zero
    1da4:	000b883a 	mov	r5,zero
    1da8:	e13ffd17 	ldw	r4,-12(fp)
    1dac:	0001edc0 	call	1edc <xQueueGenericSend>
			else
			{
				mtCOVERAGE_TEST_MARKER();
			}

			xReturn = pdPASS;
    1db0:	00800044 	movi	r2,1
    1db4:	e0bffc15 	stw	r2,-16(fp)
    1db8:	00000106 	br	1dc0 <xQueueGiveMutexRecursive+0x74>
		}
		else
		{
			/* The mutex cannot be given because the calling task is not the
			holder. */
			xReturn = pdFAIL;
    1dbc:	e03ffc15 	stw	zero,-16(fp)

			traceGIVE_MUTEX_RECURSIVE_FAILED( pxMutex );
		}

		return xReturn;
    1dc0:	e0bffc17 	ldw	r2,-16(fp)
	}
    1dc4:	e6ffff04 	addi	sp,fp,-4
    1dc8:	dfc00217 	ldw	ra,8(sp)
    1dcc:	df000117 	ldw	fp,4(sp)
    1dd0:	dc000017 	ldw	r16,0(sp)
    1dd4:	dec00304 	addi	sp,sp,12
    1dd8:	f800283a 	ret

00001ddc <xQueueTakeMutexRecursive>:
/*-----------------------------------------------------------*/

#if ( configUSE_RECURSIVE_MUTEXES == 1 )

	BaseType_t xQueueTakeMutexRecursive( QueueHandle_t xMutex, TickType_t xTicksToWait )
	{
    1ddc:	defff904 	addi	sp,sp,-28
    1de0:	dfc00615 	stw	ra,24(sp)
    1de4:	df000515 	stw	fp,20(sp)
    1de8:	dc000415 	stw	r16,16(sp)
    1dec:	df000504 	addi	fp,sp,20
    1df0:	e13ffd15 	stw	r4,-12(fp)
    1df4:	e17ffe15 	stw	r5,-8(fp)
	BaseType_t xReturn;
	Queue_t * const pxMutex = ( Queue_t * ) xMutex;
    1df8:	e0bffd17 	ldw	r2,-12(fp)
    1dfc:	e0bffc15 	stw	r2,-16(fp)
		/* Comments regarding mutual exclusion as per those within
		xQueueGiveMutexRecursive(). */

		traceTAKE_MUTEX_RECURSIVE( pxMutex );

		if( pxMutex->pxMutexHolder == ( void * ) xTaskGetCurrentTaskHandle() ) /*lint !e961 Cast is not redundant as TaskHandle_t is a typedef. */
    1e00:	e0bffc17 	ldw	r2,-16(fp)
    1e04:	14000117 	ldw	r16,4(r2)
    1e08:	0003e100 	call	3e10 <xTaskGetCurrentTaskHandle>
    1e0c:	8080081e 	bne	r16,r2,1e30 <xQueueTakeMutexRecursive+0x54>
		{
			( pxMutex->u.uxRecursiveCallCount )++;
    1e10:	e0bffc17 	ldw	r2,-16(fp)
    1e14:	10800317 	ldw	r2,12(r2)
    1e18:	10c00044 	addi	r3,r2,1
    1e1c:	e0bffc17 	ldw	r2,-16(fp)
    1e20:	10c00315 	stw	r3,12(r2)
			xReturn = pdPASS;
    1e24:	00800044 	movi	r2,1
    1e28:	e0bffb15 	stw	r2,-20(fp)
    1e2c:	00000e06 	br	1e68 <xQueueTakeMutexRecursive+0x8c>
		}
		else
		{
			xReturn = xQueueGenericReceive( pxMutex, NULL, xTicksToWait, pdFALSE );
    1e30:	000f883a 	mov	r7,zero
    1e34:	e1bffe17 	ldw	r6,-8(fp)
    1e38:	000b883a 	mov	r5,zero
    1e3c:	e13ffc17 	ldw	r4,-16(fp)
    1e40:	000222c0 	call	222c <xQueueGenericReceive>
    1e44:	e0bffb15 	stw	r2,-20(fp)

			/* pdPASS will only be returned if the mutex was successfully
			obtained.  The calling task may have entered the Blocked state
			before reaching here. */
			if( xReturn == pdPASS )
    1e48:	e0bffb17 	ldw	r2,-20(fp)
    1e4c:	10800058 	cmpnei	r2,r2,1
    1e50:	1000051e 	bne	r2,zero,1e68 <xQueueTakeMutexRecursive+0x8c>
			{
				( pxMutex->u.uxRecursiveCallCount )++;
    1e54:	e0bffc17 	ldw	r2,-16(fp)
    1e58:	10800317 	ldw	r2,12(r2)
    1e5c:	10c00044 	addi	r3,r2,1
    1e60:	e0bffc17 	ldw	r2,-16(fp)
    1e64:	10c00315 	stw	r3,12(r2)
			{
				traceTAKE_MUTEX_RECURSIVE_FAILED( pxMutex );
			}
		}

		return xReturn;
    1e68:	e0bffb17 	ldw	r2,-20(fp)
	}
    1e6c:	e6ffff04 	addi	sp,fp,-4
    1e70:	dfc00217 	ldw	ra,8(sp)
    1e74:	df000117 	ldw	fp,4(sp)
    1e78:	dc000017 	ldw	r16,0(sp)
    1e7c:	dec00304 	addi	sp,sp,12
    1e80:	f800283a 	ret

00001e84 <xQueueCreateCountingSemaphore>:
/*-----------------------------------------------------------*/

#if ( configUSE_COUNTING_SEMAPHORES == 1 )

	QueueHandle_t xQueueCreateCountingSemaphore( const UBaseType_t uxMaxCount, const UBaseType_t uxInitialCount )
	{
    1e84:	defffb04 	addi	sp,sp,-20
    1e88:	dfc00415 	stw	ra,16(sp)
    1e8c:	df000315 	stw	fp,12(sp)
    1e90:	df000304 	addi	fp,sp,12
    1e94:	e13ffe15 	stw	r4,-8(fp)
    1e98:	e17fff15 	stw	r5,-4(fp)
	QueueHandle_t xHandle;

		configASSERT( uxMaxCount != 0 );
		configASSERT( uxInitialCount <= uxMaxCount );

		xHandle = xQueueGenericCreate( uxMaxCount, queueSEMAPHORE_QUEUE_ITEM_LENGTH, queueQUEUE_TYPE_COUNTING_SEMAPHORE );
    1e9c:	01800084 	movi	r6,2
    1ea0:	000b883a 	mov	r5,zero
    1ea4:	e13ffe17 	ldw	r4,-8(fp)
    1ea8:	0001ba80 	call	1ba8 <xQueueGenericCreate>
    1eac:	e0bffd15 	stw	r2,-12(fp)

		if( xHandle != NULL )
    1eb0:	e0bffd17 	ldw	r2,-12(fp)
    1eb4:	10000326 	beq	r2,zero,1ec4 <xQueueCreateCountingSemaphore+0x40>
		{
			( ( Queue_t * ) xHandle )->uxMessagesWaiting = uxInitialCount;
    1eb8:	e0bffd17 	ldw	r2,-12(fp)
    1ebc:	e0ffff17 	ldw	r3,-4(fp)
    1ec0:	10c00e15 	stw	r3,56(r2)
		{
			traceCREATE_COUNTING_SEMAPHORE_FAILED();
		}

		configASSERT( xHandle );
		return xHandle;
    1ec4:	e0bffd17 	ldw	r2,-12(fp)
	}
    1ec8:	e037883a 	mov	sp,fp
    1ecc:	dfc00117 	ldw	ra,4(sp)
    1ed0:	df000017 	ldw	fp,0(sp)
    1ed4:	dec00204 	addi	sp,sp,8
    1ed8:	f800283a 	ret

00001edc <xQueueGenericSend>:

#endif /* configUSE_COUNTING_SEMAPHORES */
/*-----------------------------------------------------------*/

BaseType_t xQueueGenericSend( QueueHandle_t xQueue, const void * const pvItemToQueue, TickType_t xTicksToWait, const BaseType_t xCopyPosition )
{
    1edc:	defff504 	addi	sp,sp,-44
    1ee0:	dfc00a15 	stw	ra,40(sp)
    1ee4:	df000915 	stw	fp,36(sp)
    1ee8:	df000904 	addi	fp,sp,36
    1eec:	e13ffc15 	stw	r4,-16(fp)
    1ef0:	e17ffd15 	stw	r5,-12(fp)
    1ef4:	e1bffe15 	stw	r6,-8(fp)
    1ef8:	e1ffff15 	stw	r7,-4(fp)
BaseType_t xEntryTimeSet = pdFALSE, xYieldRequired;
    1efc:	e03ff715 	stw	zero,-36(fp)
TimeOut_t xTimeOut;
Queue_t * const pxQueue = ( Queue_t * ) xQueue;
    1f00:	e0bffc17 	ldw	r2,-16(fp)
    1f04:	e0bff815 	stw	r2,-32(fp)
	/* This function relaxes the coding standard somewhat to allow return
	statements within the function itself.  This is done in the interest
	of execution time efficiency. */
	for( ;; )
	{
		taskENTER_CRITICAL();
    1f08:	00040a80 	call	40a8 <vTaskEnterCritical>
		{
			/* Is there room on the queue now?  The running task must be
			the highest priority task wanting to access the queue.  If
			the head item in the queue is to be overwritten then it does
			not matter if the queue is full. */
			if( ( pxQueue->uxMessagesWaiting < pxQueue->uxLength ) || ( xCopyPosition == queueOVERWRITE ) )
    1f0c:	e0bff817 	ldw	r2,-32(fp)
    1f10:	10c00e17 	ldw	r3,56(r2)
    1f14:	e0bff817 	ldw	r2,-32(fp)
    1f18:	10800f17 	ldw	r2,60(r2)
    1f1c:	18800336 	bltu	r3,r2,1f2c <xQueueGenericSend+0x50>
    1f20:	e0bfff17 	ldw	r2,-4(fp)
    1f24:	10800098 	cmpnei	r2,r2,2
    1f28:	1000161e 	bne	r2,zero,1f84 <xQueueGenericSend+0xa8>
			{
				traceQUEUE_SEND( pxQueue );
				xYieldRequired = prvCopyDataToQueue( pxQueue, pvItemToQueue, xCopyPosition );
    1f2c:	e1bfff17 	ldw	r6,-4(fp)
    1f30:	e17ffd17 	ldw	r5,-12(fp)
    1f34:	e13ff817 	ldw	r4,-32(fp)
    1f38:	00026900 	call	2690 <prvCopyDataToQueue>
    1f3c:	e0bff915 	stw	r2,-28(fp)
				}
				#else /* configUSE_QUEUE_SETS */
				{
					/* If there was a task waiting for data to arrive on the
					queue then unblock it now. */
					if( listLIST_IS_EMPTY( &( pxQueue->xTasksWaitingToReceive ) ) == pdFALSE )
    1f40:	e0bff817 	ldw	r2,-32(fp)
    1f44:	10800917 	ldw	r2,36(r2)
    1f48:	10000826 	beq	r2,zero,1f6c <xQueueGenericSend+0x90>
					{
						if( xTaskRemoveFromEventList( &( pxQueue->xTasksWaitingToReceive ) ) == pdTRUE )
    1f4c:	e0bff817 	ldw	r2,-32(fp)
    1f50:	10800904 	addi	r2,r2,36
    1f54:	1009883a 	mov	r4,r2
    1f58:	00035a00 	call	35a0 <xTaskRemoveFromEventList>
    1f5c:	10800058 	cmpnei	r2,r2,1
    1f60:	1000051e 	bne	r2,zero,1f78 <xQueueGenericSend+0x9c>
						{
							/* The unblocked task has a priority higher than
							our own so yield immediately.  Yes it is ok to do
							this from within the critical section - the kernel
							takes care of that. */
							queueYIELD_IF_USING_PREEMPTION();
    1f64:	003b683a 	trap	0
    1f68:	00000306 	br	1f78 <xQueueGenericSend+0x9c>
						else
						{
							mtCOVERAGE_TEST_MARKER();
						}
					}
					else if( xYieldRequired != pdFALSE )
    1f6c:	e0bff917 	ldw	r2,-28(fp)
    1f70:	10000126 	beq	r2,zero,1f78 <xQueueGenericSend+0x9c>
					{
						/* This path is a special case that will only get
						executed if the task was holding multiple mutexes and
						the mutexes were given back in an order that is
						different to that in which they were taken. */
						queueYIELD_IF_USING_PREEMPTION();
    1f74:	003b683a 	trap	0
						mtCOVERAGE_TEST_MARKER();
					}
				}
				#endif /* configUSE_QUEUE_SETS */

				taskEXIT_CRITICAL();
    1f78:	00040fc0 	call	40fc <vTaskExitCritical>
				return pdPASS;
    1f7c:	00800044 	movi	r2,1
    1f80:	00003906 	br	2068 <xQueueGenericSend+0x18c>
			}
			else
			{
				if( xTicksToWait == ( TickType_t ) 0 )
    1f84:	e0bffe17 	ldw	r2,-8(fp)
    1f88:	1000031e 	bne	r2,zero,1f98 <xQueueGenericSend+0xbc>
				{
					/* The queue was full and no block time is specified (or
					the block time has expired) so leave now. */
					taskEXIT_CRITICAL();
    1f8c:	00040fc0 	call	40fc <vTaskExitCritical>

					/* Return to the original privilege level before exiting
					the function. */
					traceQUEUE_SEND_FAILED( pxQueue );
					return errQUEUE_FULL;
    1f90:	0005883a 	mov	r2,zero
    1f94:	00003406 	br	2068 <xQueueGenericSend+0x18c>
				}
				else if( xEntryTimeSet == pdFALSE )
    1f98:	e0bff717 	ldw	r2,-36(fp)
    1f9c:	1000051e 	bne	r2,zero,1fb4 <xQueueGenericSend+0xd8>
				{
					/* The queue was full and a block time was specified so
					configure the timeout structure. */
					vTaskSetTimeOutState( &xTimeOut );
    1fa0:	e0bffa04 	addi	r2,fp,-24
    1fa4:	1009883a 	mov	r4,r2
    1fa8:	000376c0 	call	376c <vTaskSetTimeOutState>
					xEntryTimeSet = pdTRUE;
    1fac:	00800044 	movi	r2,1
    1fb0:	e0bff715 	stw	r2,-36(fp)
					/* Entry time was already set. */
					mtCOVERAGE_TEST_MARKER();
				}
			}
		}
		taskEXIT_CRITICAL();
    1fb4:	00040fc0 	call	40fc <vTaskExitCritical>

		/* Interrupts and other tasks can send to and receive from the queue
		now the critical section has been exited. */

		vTaskSuspendAll();
    1fb8:	0002f6c0 	call	2f6c <vTaskSuspendAll>
		prvLockQueue( pxQueue );
    1fbc:	00040a80 	call	40a8 <vTaskEnterCritical>
    1fc0:	e0bff817 	ldw	r2,-32(fp)
    1fc4:	10801117 	ldw	r2,68(r2)
    1fc8:	10bfffd8 	cmpnei	r2,r2,-1
    1fcc:	1000021e 	bne	r2,zero,1fd8 <xQueueGenericSend+0xfc>
    1fd0:	e0bff817 	ldw	r2,-32(fp)
    1fd4:	10001115 	stw	zero,68(r2)
    1fd8:	e0bff817 	ldw	r2,-32(fp)
    1fdc:	10801217 	ldw	r2,72(r2)
    1fe0:	10bfffd8 	cmpnei	r2,r2,-1
    1fe4:	1000021e 	bne	r2,zero,1ff0 <xQueueGenericSend+0x114>
    1fe8:	e0bff817 	ldw	r2,-32(fp)
    1fec:	10001215 	stw	zero,72(r2)
    1ff0:	00040fc0 	call	40fc <vTaskExitCritical>

		/* Update the timeout state to see if it has expired yet. */
		if( xTaskCheckForTimeOut( &xTimeOut, &xTicksToWait ) == pdFALSE )
    1ff4:	e0fffe04 	addi	r3,fp,-8
    1ff8:	e0bffa04 	addi	r2,fp,-24
    1ffc:	180b883a 	mov	r5,r3
    2000:	1009883a 	mov	r4,r2
    2004:	00037a80 	call	37a8 <xTaskCheckForTimeOut>
    2008:	1000131e 	bne	r2,zero,2058 <xQueueGenericSend+0x17c>
		{
			if( prvIsQueueFull( pxQueue ) != pdFALSE )
    200c:	e13ff817 	ldw	r4,-32(fp)
    2010:	0002a400 	call	2a40 <prvIsQueueFull>
    2014:	10000c26 	beq	r2,zero,2048 <xQueueGenericSend+0x16c>
			{
				traceBLOCKING_ON_QUEUE_SEND( pxQueue );
				vTaskPlaceOnEventList( &( pxQueue->xTasksWaitingToSend ), xTicksToWait );
    2018:	e0bff817 	ldw	r2,-32(fp)
    201c:	10800404 	addi	r2,r2,16
    2020:	e0fffe17 	ldw	r3,-8(fp)
    2024:	180b883a 	mov	r5,r3
    2028:	1009883a 	mov	r4,r2
    202c:	00034480 	call	3448 <vTaskPlaceOnEventList>
				/* Unlocking the queue means queue events can effect the
				event list.  It is possible	that interrupts occurring now
				remove this task from the event	list again - but as the
				scheduler is suspended the task will go onto the pending
				ready last instead of the actual ready list. */
				prvUnlockQueue( pxQueue );
    2030:	e13ff817 	ldw	r4,-32(fp)
    2034:	00028bc0 	call	28bc <prvUnlockQueue>
				/* Resuming the scheduler will move tasks from the pending
				ready list into the ready list - so it is feasible that this
				task is already in a ready list before it yields - in which
				case the yield will not cause a context switch unless there
				is also a higher priority task in the pending ready list. */
				if( xTaskResumeAll() == pdFALSE )
    2038:	0002f980 	call	2f98 <xTaskResumeAll>
    203c:	103fb21e 	bne	r2,zero,1f08 <__alt_data_end+0xf0001f08>
				{
					portYIELD_WITHIN_API();
    2040:	003b683a 	trap	0
    2044:	003fb006 	br	1f08 <__alt_data_end+0xf0001f08>
				}
			}
			else
			{
				/* Try again. */
				prvUnlockQueue( pxQueue );
    2048:	e13ff817 	ldw	r4,-32(fp)
    204c:	00028bc0 	call	28bc <prvUnlockQueue>
				( void ) xTaskResumeAll();
    2050:	0002f980 	call	2f98 <xTaskResumeAll>
    2054:	003fac06 	br	1f08 <__alt_data_end+0xf0001f08>
			}
		}
		else
		{
			/* The timeout has expired. */
			prvUnlockQueue( pxQueue );
    2058:	e13ff817 	ldw	r4,-32(fp)
    205c:	00028bc0 	call	28bc <prvUnlockQueue>
			( void ) xTaskResumeAll();
    2060:	0002f980 	call	2f98 <xTaskResumeAll>

			/* Return to the original privilege level before exiting the
			function. */
			traceQUEUE_SEND_FAILED( pxQueue );
			return errQUEUE_FULL;
    2064:	0005883a 	mov	r2,zero
		}
	}
}
    2068:	e037883a 	mov	sp,fp
    206c:	dfc00117 	ldw	ra,4(sp)
    2070:	df000017 	ldw	fp,0(sp)
    2074:	dec00204 	addi	sp,sp,8
    2078:	f800283a 	ret

0000207c <xQueueGenericSendFromISR>:

#endif /* configUSE_ALTERNATIVE_API */
/*-----------------------------------------------------------*/

BaseType_t xQueueGenericSendFromISR( QueueHandle_t xQueue, const void * const pvItemToQueue, BaseType_t * const pxHigherPriorityTaskWoken, const BaseType_t xCopyPosition )
{
    207c:	defff704 	addi	sp,sp,-36
    2080:	dfc00815 	stw	ra,32(sp)
    2084:	df000715 	stw	fp,28(sp)
    2088:	df000704 	addi	fp,sp,28
    208c:	e13ffc15 	stw	r4,-16(fp)
    2090:	e17ffd15 	stw	r5,-12(fp)
    2094:	e1bffe15 	stw	r6,-8(fp)
    2098:	e1ffff15 	stw	r7,-4(fp)
BaseType_t xReturn;
UBaseType_t uxSavedInterruptStatus;
Queue_t * const pxQueue = ( Queue_t * ) xQueue;
    209c:	e0bffc17 	ldw	r2,-16(fp)
    20a0:	e0bffa15 	stw	r2,-24(fp)
	/* Similar to xQueueGenericSend, except without blocking if there is no room
	in the queue.  Also don't directly wake a task that was blocked on a queue
	read, instead return a flag to say whether a context switch is required or
	not (i.e. has a task with a higher priority than us been woken by this
	post). */
	uxSavedInterruptStatus = portSET_INTERRUPT_MASK_FROM_ISR();
    20a4:	e03ffb15 	stw	zero,-20(fp)
	{
		if( ( pxQueue->uxMessagesWaiting < pxQueue->uxLength ) || ( xCopyPosition == queueOVERWRITE ) )
    20a8:	e0bffa17 	ldw	r2,-24(fp)
    20ac:	10c00e17 	ldw	r3,56(r2)
    20b0:	e0bffa17 	ldw	r2,-24(fp)
    20b4:	10800f17 	ldw	r2,60(r2)
    20b8:	18800336 	bltu	r3,r2,20c8 <xQueueGenericSendFromISR+0x4c>
    20bc:	e0bfff17 	ldw	r2,-4(fp)
    20c0:	10800098 	cmpnei	r2,r2,2
    20c4:	10001e1e 	bne	r2,zero,2140 <xQueueGenericSendFromISR+0xc4>
			/* A task can only have an inherited priority if it is a mutex
			holder - and if there is a mutex holder then the mutex cannot be
			given from an ISR.  Therefore, unlike the xQueueGenericGive()
			function, there is no need to determine the need for priority
			disinheritance here or to clear the mutex holder TCB member. */
			( void ) prvCopyDataToQueue( pxQueue, pvItemToQueue, xCopyPosition );
    20c8:	e1bfff17 	ldw	r6,-4(fp)
    20cc:	e17ffd17 	ldw	r5,-12(fp)
    20d0:	e13ffa17 	ldw	r4,-24(fp)
    20d4:	00026900 	call	2690 <prvCopyDataToQueue>

			/* The event list is not altered if the queue is locked.  This will
			be done when the queue is unlocked later. */
			if( pxQueue->xTxLock == queueUNLOCKED )
    20d8:	e0bffa17 	ldw	r2,-24(fp)
    20dc:	10801217 	ldw	r2,72(r2)
    20e0:	10bfffd8 	cmpnei	r2,r2,-1
    20e4:	10000e1e 	bne	r2,zero,2120 <xQueueGenericSendFromISR+0xa4>
						}
					}
				}
				#else /* configUSE_QUEUE_SETS */
				{
					if( listLIST_IS_EMPTY( &( pxQueue->xTasksWaitingToReceive ) ) == pdFALSE )
    20e8:	e0bffa17 	ldw	r2,-24(fp)
    20ec:	10800917 	ldw	r2,36(r2)
    20f0:	10001026 	beq	r2,zero,2134 <xQueueGenericSendFromISR+0xb8>
					{
						if( xTaskRemoveFromEventList( &( pxQueue->xTasksWaitingToReceive ) ) != pdFALSE )
    20f4:	e0bffa17 	ldw	r2,-24(fp)
    20f8:	10800904 	addi	r2,r2,36
    20fc:	1009883a 	mov	r4,r2
    2100:	00035a00 	call	35a0 <xTaskRemoveFromEventList>
    2104:	10000b26 	beq	r2,zero,2134 <xQueueGenericSendFromISR+0xb8>
						{
							/* The task waiting has a higher priority so record that a
							context	switch is required. */
							if( pxHigherPriorityTaskWoken != NULL )
    2108:	e0bffe17 	ldw	r2,-8(fp)
    210c:	10000926 	beq	r2,zero,2134 <xQueueGenericSendFromISR+0xb8>
							{
								*pxHigherPriorityTaskWoken = pdTRUE;
    2110:	e0bffe17 	ldw	r2,-8(fp)
    2114:	00c00044 	movi	r3,1
    2118:	10c00015 	stw	r3,0(r2)
    211c:	00000506 	br	2134 <xQueueGenericSendFromISR+0xb8>
			}
			else
			{
				/* Increment the lock count so the task that unlocks the queue
				knows that data was posted while it was locked. */
				++( pxQueue->xTxLock );
    2120:	e0bffa17 	ldw	r2,-24(fp)
    2124:	10801217 	ldw	r2,72(r2)
    2128:	10c00044 	addi	r3,r2,1
    212c:	e0bffa17 	ldw	r2,-24(fp)
    2130:	10c01215 	stw	r3,72(r2)
			}

			xReturn = pdPASS;
    2134:	00800044 	movi	r2,1
    2138:	e0bff915 	stw	r2,-28(fp)
    213c:	00000106 	br	2144 <xQueueGenericSendFromISR+0xc8>
		}
		else
		{
			traceQUEUE_SEND_FROM_ISR_FAILED( pxQueue );
			xReturn = errQUEUE_FULL;
    2140:	e03ff915 	stw	zero,-28(fp)
		}
	}
	portCLEAR_INTERRUPT_MASK_FROM_ISR( uxSavedInterruptStatus );

	return xReturn;
    2144:	e0bff917 	ldw	r2,-28(fp)
}
    2148:	e037883a 	mov	sp,fp
    214c:	dfc00117 	ldw	ra,4(sp)
    2150:	df000017 	ldw	fp,0(sp)
    2154:	dec00204 	addi	sp,sp,8
    2158:	f800283a 	ret

0000215c <xQueueGiveFromISR>:
/*-----------------------------------------------------------*/

BaseType_t xQueueGiveFromISR( QueueHandle_t xQueue, BaseType_t * const pxHigherPriorityTaskWoken )
{
    215c:	defff904 	addi	sp,sp,-28
    2160:	dfc00615 	stw	ra,24(sp)
    2164:	df000515 	stw	fp,20(sp)
    2168:	df000504 	addi	fp,sp,20
    216c:	e13ffe15 	stw	r4,-8(fp)
    2170:	e17fff15 	stw	r5,-4(fp)
BaseType_t xReturn;
UBaseType_t uxSavedInterruptStatus;
Queue_t * const pxQueue = ( Queue_t * ) xQueue;
    2174:	e0bffe17 	ldw	r2,-8(fp)
    2178:	e0bffc15 	stw	r2,-16(fp)
	/* Similar to xQueueGenericSendFromISR() but used with semaphores where the
	item size is 0.  Don't directly wake a task that was blocked on a queue
	read, instead return a flag to say whether a context switch is required or
	not (i.e. has a task with a higher priority than us been woken by this
	post). */
	uxSavedInterruptStatus = portSET_INTERRUPT_MASK_FROM_ISR();
    217c:	e03ffd15 	stw	zero,-12(fp)
	{
		/* When the queue is used to implement a semaphore no data is ever
		moved through the queue but it is still valid to see if the queue 'has
		space'. */
		if( pxQueue->uxMessagesWaiting < pxQueue->uxLength )
    2180:	e0bffc17 	ldw	r2,-16(fp)
    2184:	10c00e17 	ldw	r3,56(r2)
    2188:	e0bffc17 	ldw	r2,-16(fp)
    218c:	10800f17 	ldw	r2,60(r2)
    2190:	18801f2e 	bgeu	r3,r2,2210 <xQueueGiveFromISR+0xb4>
			holder - and if there is a mutex holder then the mutex cannot be
			given from an ISR.  Therefore, unlike the xQueueGenericGive()
			function, there is no need to determine the need for priority
			disinheritance here or to clear the mutex holder TCB member. */

			++( pxQueue->uxMessagesWaiting );
    2194:	e0bffc17 	ldw	r2,-16(fp)
    2198:	10800e17 	ldw	r2,56(r2)
    219c:	10c00044 	addi	r3,r2,1
    21a0:	e0bffc17 	ldw	r2,-16(fp)
    21a4:	10c00e15 	stw	r3,56(r2)

			/* The event list is not altered if the queue is locked.  This will
			be done when the queue is unlocked later. */
			if( pxQueue->xTxLock == queueUNLOCKED )
    21a8:	e0bffc17 	ldw	r2,-16(fp)
    21ac:	10801217 	ldw	r2,72(r2)
    21b0:	10bfffd8 	cmpnei	r2,r2,-1
    21b4:	10000e1e 	bne	r2,zero,21f0 <xQueueGiveFromISR+0x94>
						}
					}
				}
				#else /* configUSE_QUEUE_SETS */
				{
					if( listLIST_IS_EMPTY( &( pxQueue->xTasksWaitingToReceive ) ) == pdFALSE )
    21b8:	e0bffc17 	ldw	r2,-16(fp)
    21bc:	10800917 	ldw	r2,36(r2)
    21c0:	10001026 	beq	r2,zero,2204 <xQueueGiveFromISR+0xa8>
					{
						if( xTaskRemoveFromEventList( &( pxQueue->xTasksWaitingToReceive ) ) != pdFALSE )
    21c4:	e0bffc17 	ldw	r2,-16(fp)
    21c8:	10800904 	addi	r2,r2,36
    21cc:	1009883a 	mov	r4,r2
    21d0:	00035a00 	call	35a0 <xTaskRemoveFromEventList>
    21d4:	10000b26 	beq	r2,zero,2204 <xQueueGiveFromISR+0xa8>
						{
							/* The task waiting has a higher priority so record that a
							context	switch is required. */
							if( pxHigherPriorityTaskWoken != NULL )
    21d8:	e0bfff17 	ldw	r2,-4(fp)
    21dc:	10000926 	beq	r2,zero,2204 <xQueueGiveFromISR+0xa8>
							{
								*pxHigherPriorityTaskWoken = pdTRUE;
    21e0:	e0bfff17 	ldw	r2,-4(fp)
    21e4:	00c00044 	movi	r3,1
    21e8:	10c00015 	stw	r3,0(r2)
    21ec:	00000506 	br	2204 <xQueueGiveFromISR+0xa8>
			}
			else
			{
				/* Increment the lock count so the task that unlocks the queue
				knows that data was posted while it was locked. */
				++( pxQueue->xTxLock );
    21f0:	e0bffc17 	ldw	r2,-16(fp)
    21f4:	10801217 	ldw	r2,72(r2)
    21f8:	10c00044 	addi	r3,r2,1
    21fc:	e0bffc17 	ldw	r2,-16(fp)
    2200:	10c01215 	stw	r3,72(r2)
			}

			xReturn = pdPASS;
    2204:	00800044 	movi	r2,1
    2208:	e0bffb15 	stw	r2,-20(fp)
    220c:	00000106 	br	2214 <xQueueGiveFromISR+0xb8>
		}
		else
		{
			traceQUEUE_SEND_FROM_ISR_FAILED( pxQueue );
			xReturn = errQUEUE_FULL;
    2210:	e03ffb15 	stw	zero,-20(fp)
		}
	}
	portCLEAR_INTERRUPT_MASK_FROM_ISR( uxSavedInterruptStatus );

	return xReturn;
    2214:	e0bffb17 	ldw	r2,-20(fp)
}
    2218:	e037883a 	mov	sp,fp
    221c:	dfc00117 	ldw	ra,4(sp)
    2220:	df000017 	ldw	fp,0(sp)
    2224:	dec00204 	addi	sp,sp,8
    2228:	f800283a 	ret

0000222c <xQueueGenericReceive>:
/*-----------------------------------------------------------*/

BaseType_t xQueueGenericReceive( QueueHandle_t xQueue, void * const pvBuffer, TickType_t xTicksToWait, const BaseType_t xJustPeeking )
{
    222c:	defff504 	addi	sp,sp,-44
    2230:	dfc00a15 	stw	ra,40(sp)
    2234:	df000915 	stw	fp,36(sp)
    2238:	df000904 	addi	fp,sp,36
    223c:	e13ffc15 	stw	r4,-16(fp)
    2240:	e17ffd15 	stw	r5,-12(fp)
    2244:	e1bffe15 	stw	r6,-8(fp)
    2248:	e1ffff15 	stw	r7,-4(fp)
BaseType_t xEntryTimeSet = pdFALSE;
    224c:	e03ff715 	stw	zero,-36(fp)
TimeOut_t xTimeOut;
int8_t *pcOriginalReadPosition;
Queue_t * const pxQueue = ( Queue_t * ) xQueue;
    2250:	e0bffc17 	ldw	r2,-16(fp)
    2254:	e0bff815 	stw	r2,-32(fp)
	statements within the function itself.  This is done in the interest
	of execution time efficiency. */

	for( ;; )
	{
		taskENTER_CRITICAL();
    2258:	00040a80 	call	40a8 <vTaskEnterCritical>
		{
			/* Is there data in the queue now?  To be running the calling task
			must be	the highest priority task wanting to access the queue. */
			if( pxQueue->uxMessagesWaiting > ( UBaseType_t ) 0 )
    225c:	e0bff817 	ldw	r2,-32(fp)
    2260:	10800e17 	ldw	r2,56(r2)
    2264:	10002e26 	beq	r2,zero,2320 <xQueueGenericReceive+0xf4>
			{
				/* Remember the read position in case the queue is only being
				peeked. */
				pcOriginalReadPosition = pxQueue->u.pcReadFrom;
    2268:	e0bff817 	ldw	r2,-32(fp)
    226c:	10800317 	ldw	r2,12(r2)
    2270:	e0bff915 	stw	r2,-28(fp)

				prvCopyDataFromQueue( pxQueue, pvBuffer );
    2274:	e17ffd17 	ldw	r5,-12(fp)
    2278:	e13ff817 	ldw	r4,-32(fp)
    227c:	00028200 	call	2820 <prvCopyDataFromQueue>

				if( xJustPeeking == pdFALSE )
    2280:	e0bfff17 	ldw	r2,-4(fp)
    2284:	1000171e 	bne	r2,zero,22e4 <xQueueGenericReceive+0xb8>
				{
					traceQUEUE_RECEIVE( pxQueue );

					/* Actually removing data, not just peeking. */
					--( pxQueue->uxMessagesWaiting );
    2288:	e0bff817 	ldw	r2,-32(fp)
    228c:	10800e17 	ldw	r2,56(r2)
    2290:	10ffffc4 	addi	r3,r2,-1
    2294:	e0bff817 	ldw	r2,-32(fp)
    2298:	10c00e15 	stw	r3,56(r2)

					#if ( configUSE_MUTEXES == 1 )
					{
						if( pxQueue->uxQueueType == queueQUEUE_IS_MUTEX )
    229c:	e0bff817 	ldw	r2,-32(fp)
    22a0:	10800017 	ldw	r2,0(r2)
    22a4:	1000041e 	bne	r2,zero,22b8 <xQueueGenericReceive+0x8c>
						{
							/* Record the information required to implement
							priority inheritance should it become necessary. */
							pxQueue->pxMutexHolder = ( int8_t * ) pvTaskIncrementMutexHeldCount(); /*lint !e961 Cast is not redundant as TaskHandle_t is a typedef. */
    22a8:	00041a00 	call	41a0 <pvTaskIncrementMutexHeldCount>
    22ac:	1007883a 	mov	r3,r2
    22b0:	e0bff817 	ldw	r2,-32(fp)
    22b4:	10c00115 	stw	r3,4(r2)
							mtCOVERAGE_TEST_MARKER();
						}
					}
					#endif /* configUSE_MUTEXES */

					if( listLIST_IS_EMPTY( &( pxQueue->xTasksWaitingToSend ) ) == pdFALSE )
    22b8:	e0bff817 	ldw	r2,-32(fp)
    22bc:	10800417 	ldw	r2,16(r2)
    22c0:	10001426 	beq	r2,zero,2314 <xQueueGenericReceive+0xe8>
					{
						if( xTaskRemoveFromEventList( &( pxQueue->xTasksWaitingToSend ) ) == pdTRUE )
    22c4:	e0bff817 	ldw	r2,-32(fp)
    22c8:	10800404 	addi	r2,r2,16
    22cc:	1009883a 	mov	r4,r2
    22d0:	00035a00 	call	35a0 <xTaskRemoveFromEventList>
    22d4:	10800058 	cmpnei	r2,r2,1
    22d8:	10000e1e 	bne	r2,zero,2314 <xQueueGenericReceive+0xe8>
						{
							queueYIELD_IF_USING_PREEMPTION();
    22dc:	003b683a 	trap	0
    22e0:	00000c06 	br	2314 <xQueueGenericReceive+0xe8>
				{
					traceQUEUE_PEEK( pxQueue );

					/* The data is not being removed, so reset the read
					pointer. */
					pxQueue->u.pcReadFrom = pcOriginalReadPosition;
    22e4:	e0bff817 	ldw	r2,-32(fp)
    22e8:	e0fff917 	ldw	r3,-28(fp)
    22ec:	10c00315 	stw	r3,12(r2)

					/* The data is being left in the queue, so see if there are
					any other tasks waiting for the data. */
					if( listLIST_IS_EMPTY( &( pxQueue->xTasksWaitingToReceive ) ) == pdFALSE )
    22f0:	e0bff817 	ldw	r2,-32(fp)
    22f4:	10800917 	ldw	r2,36(r2)
    22f8:	10000626 	beq	r2,zero,2314 <xQueueGenericReceive+0xe8>
					{
						/* Tasks that are removed from the event list will get added to
						the pending ready list as the scheduler is still suspended. */
						if( xTaskRemoveFromEventList( &( pxQueue->xTasksWaitingToReceive ) ) != pdFALSE )
    22fc:	e0bff817 	ldw	r2,-32(fp)
    2300:	10800904 	addi	r2,r2,36
    2304:	1009883a 	mov	r4,r2
    2308:	00035a00 	call	35a0 <xTaskRemoveFromEventList>
    230c:	10000126 	beq	r2,zero,2314 <xQueueGenericReceive+0xe8>
						{
							/* The task waiting has a higher priority than this task. */
							queueYIELD_IF_USING_PREEMPTION();
    2310:	003b683a 	trap	0
					{
						mtCOVERAGE_TEST_MARKER();
					}
				}

				taskEXIT_CRITICAL();
    2314:	00040fc0 	call	40fc <vTaskExitCritical>
				return pdPASS;
    2318:	00800044 	movi	r2,1
    231c:	00004206 	br	2428 <xQueueGenericReceive+0x1fc>
			}
			else
			{
				if( xTicksToWait == ( TickType_t ) 0 )
    2320:	e0bffe17 	ldw	r2,-8(fp)
    2324:	1000031e 	bne	r2,zero,2334 <xQueueGenericReceive+0x108>
				{
					/* The queue was empty and no block time is specified (or
					the block time has expired) so leave now. */
					taskEXIT_CRITICAL();
    2328:	00040fc0 	call	40fc <vTaskExitCritical>
					traceQUEUE_RECEIVE_FAILED( pxQueue );
					return errQUEUE_EMPTY;
    232c:	0005883a 	mov	r2,zero
    2330:	00003d06 	br	2428 <xQueueGenericReceive+0x1fc>
				}
				else if( xEntryTimeSet == pdFALSE )
    2334:	e0bff717 	ldw	r2,-36(fp)
    2338:	1000051e 	bne	r2,zero,2350 <xQueueGenericReceive+0x124>
				{
					/* The queue was empty and a block time was specified so
					configure the timeout structure. */
					vTaskSetTimeOutState( &xTimeOut );
    233c:	e0bffa04 	addi	r2,fp,-24
    2340:	1009883a 	mov	r4,r2
    2344:	000376c0 	call	376c <vTaskSetTimeOutState>
					xEntryTimeSet = pdTRUE;
    2348:	00800044 	movi	r2,1
    234c:	e0bff715 	stw	r2,-36(fp)
					/* Entry time was already set. */
					mtCOVERAGE_TEST_MARKER();
				}
			}
		}
		taskEXIT_CRITICAL();
    2350:	00040fc0 	call	40fc <vTaskExitCritical>

		/* Interrupts and other tasks can send to and receive from the queue
		now the critical section has been exited. */

		vTaskSuspendAll();
    2354:	0002f6c0 	call	2f6c <vTaskSuspendAll>
		prvLockQueue( pxQueue );
    2358:	00040a80 	call	40a8 <vTaskEnterCritical>
    235c:	e0bff817 	ldw	r2,-32(fp)
    2360:	10801117 	ldw	r2,68(r2)
    2364:	10bfffd8 	cmpnei	r2,r2,-1
    2368:	1000021e 	bne	r2,zero,2374 <xQueueGenericReceive+0x148>
    236c:	e0bff817 	ldw	r2,-32(fp)
    2370:	10001115 	stw	zero,68(r2)
    2374:	e0bff817 	ldw	r2,-32(fp)
    2378:	10801217 	ldw	r2,72(r2)
    237c:	10bfffd8 	cmpnei	r2,r2,-1
    2380:	1000021e 	bne	r2,zero,238c <xQueueGenericReceive+0x160>
    2384:	e0bff817 	ldw	r2,-32(fp)
    2388:	10001215 	stw	zero,72(r2)
    238c:	00040fc0 	call	40fc <vTaskExitCritical>

		/* Update the timeout state to see if it has expired yet. */
		if( xTaskCheckForTimeOut( &xTimeOut, &xTicksToWait ) == pdFALSE )
    2390:	e0fffe04 	addi	r3,fp,-8
    2394:	e0bffa04 	addi	r2,fp,-24
    2398:	180b883a 	mov	r5,r3
    239c:	1009883a 	mov	r4,r2
    23a0:	00037a80 	call	37a8 <xTaskCheckForTimeOut>
    23a4:	10001c1e 	bne	r2,zero,2418 <xQueueGenericReceive+0x1ec>
		{
			if( prvIsQueueEmpty( pxQueue ) != pdFALSE )
    23a8:	e13ff817 	ldw	r4,-32(fp)
    23ac:	00029b00 	call	29b0 <prvIsQueueEmpty>
    23b0:	10001526 	beq	r2,zero,2408 <xQueueGenericReceive+0x1dc>
			{
				traceBLOCKING_ON_QUEUE_RECEIVE( pxQueue );

				#if ( configUSE_MUTEXES == 1 )
				{
					if( pxQueue->uxQueueType == queueQUEUE_IS_MUTEX )
    23b4:	e0bff817 	ldw	r2,-32(fp)
    23b8:	10800017 	ldw	r2,0(r2)
    23bc:	1000061e 	bne	r2,zero,23d8 <xQueueGenericReceive+0x1ac>
					{
						taskENTER_CRITICAL();
    23c0:	00040a80 	call	40a8 <vTaskEnterCritical>
						{
							vTaskPriorityInherit( ( void * ) pxQueue->pxMutexHolder );
    23c4:	e0bff817 	ldw	r2,-32(fp)
    23c8:	10800117 	ldw	r2,4(r2)
    23cc:	1009883a 	mov	r4,r2
    23d0:	0003e840 	call	3e84 <vTaskPriorityInherit>
						}
						taskEXIT_CRITICAL();
    23d4:	00040fc0 	call	40fc <vTaskExitCritical>
						mtCOVERAGE_TEST_MARKER();
					}
				}
				#endif

				vTaskPlaceOnEventList( &( pxQueue->xTasksWaitingToReceive ), xTicksToWait );
    23d8:	e0bff817 	ldw	r2,-32(fp)
    23dc:	10800904 	addi	r2,r2,36
    23e0:	e0fffe17 	ldw	r3,-8(fp)
    23e4:	180b883a 	mov	r5,r3
    23e8:	1009883a 	mov	r4,r2
    23ec:	00034480 	call	3448 <vTaskPlaceOnEventList>
				prvUnlockQueue( pxQueue );
    23f0:	e13ff817 	ldw	r4,-32(fp)
    23f4:	00028bc0 	call	28bc <prvUnlockQueue>
				if( xTaskResumeAll() == pdFALSE )
    23f8:	0002f980 	call	2f98 <xTaskResumeAll>
    23fc:	103f961e 	bne	r2,zero,2258 <__alt_data_end+0xf0002258>
				{
					portYIELD_WITHIN_API();
    2400:	003b683a 	trap	0
    2404:	003f9406 	br	2258 <__alt_data_end+0xf0002258>
				}
			}
			else
			{
				/* Try again. */
				prvUnlockQueue( pxQueue );
    2408:	e13ff817 	ldw	r4,-32(fp)
    240c:	00028bc0 	call	28bc <prvUnlockQueue>
				( void ) xTaskResumeAll();
    2410:	0002f980 	call	2f98 <xTaskResumeAll>
    2414:	003f9006 	br	2258 <__alt_data_end+0xf0002258>
			}
		}
		else
		{
			prvUnlockQueue( pxQueue );
    2418:	e13ff817 	ldw	r4,-32(fp)
    241c:	00028bc0 	call	28bc <prvUnlockQueue>
			( void ) xTaskResumeAll();
    2420:	0002f980 	call	2f98 <xTaskResumeAll>
			traceQUEUE_RECEIVE_FAILED( pxQueue );
			return errQUEUE_EMPTY;
    2424:	0005883a 	mov	r2,zero
		}
	}
}
    2428:	e037883a 	mov	sp,fp
    242c:	dfc00117 	ldw	ra,4(sp)
    2430:	df000017 	ldw	fp,0(sp)
    2434:	dec00204 	addi	sp,sp,8
    2438:	f800283a 	ret

0000243c <xQueueReceiveFromISR>:
/*-----------------------------------------------------------*/

BaseType_t xQueueReceiveFromISR( QueueHandle_t xQueue, void * const pvBuffer, BaseType_t * const pxHigherPriorityTaskWoken )
{
    243c:	defff804 	addi	sp,sp,-32
    2440:	dfc00715 	stw	ra,28(sp)
    2444:	df000615 	stw	fp,24(sp)
    2448:	df000604 	addi	fp,sp,24
    244c:	e13ffd15 	stw	r4,-12(fp)
    2450:	e17ffe15 	stw	r5,-8(fp)
    2454:	e1bfff15 	stw	r6,-4(fp)
BaseType_t xReturn;
UBaseType_t uxSavedInterruptStatus;
Queue_t * const pxQueue = ( Queue_t * ) xQueue;
    2458:	e0bffd17 	ldw	r2,-12(fp)
    245c:	e0bffb15 	stw	r2,-20(fp)
	safe API to ensure interrupt entry is as fast and as simple as possible.
	More information (albeit Cortex-M specific) is provided on the following
	link: http://www.freertos.org/RTOS-Cortex-M3-M4.html */
	portASSERT_IF_INTERRUPT_PRIORITY_INVALID();

	uxSavedInterruptStatus = portSET_INTERRUPT_MASK_FROM_ISR();
    2460:	e03ffc15 	stw	zero,-16(fp)
	{
		/* Cannot block in an ISR, so check there is data available. */
		if( pxQueue->uxMessagesWaiting > ( UBaseType_t ) 0 )
    2464:	e0bffb17 	ldw	r2,-20(fp)
    2468:	10800e17 	ldw	r2,56(r2)
    246c:	10002226 	beq	r2,zero,24f8 <xQueueReceiveFromISR+0xbc>
		{
			traceQUEUE_RECEIVE_FROM_ISR( pxQueue );

			prvCopyDataFromQueue( pxQueue, pvBuffer );
    2470:	e17ffe17 	ldw	r5,-8(fp)
    2474:	e13ffb17 	ldw	r4,-20(fp)
    2478:	00028200 	call	2820 <prvCopyDataFromQueue>
			--( pxQueue->uxMessagesWaiting );
    247c:	e0bffb17 	ldw	r2,-20(fp)
    2480:	10800e17 	ldw	r2,56(r2)
    2484:	10ffffc4 	addi	r3,r2,-1
    2488:	e0bffb17 	ldw	r2,-20(fp)
    248c:	10c00e15 	stw	r3,56(r2)

			/* If the queue is locked the event list will not be modified.
			Instead update the lock count so the task that unlocks the queue
			will know that an ISR has removed data while the queue was
			locked. */
			if( pxQueue->xRxLock == queueUNLOCKED )
    2490:	e0bffb17 	ldw	r2,-20(fp)
    2494:	10801117 	ldw	r2,68(r2)
    2498:	10bfffd8 	cmpnei	r2,r2,-1
    249c:	10000e1e 	bne	r2,zero,24d8 <xQueueReceiveFromISR+0x9c>
			{
				if( listLIST_IS_EMPTY( &( pxQueue->xTasksWaitingToSend ) ) == pdFALSE )
    24a0:	e0bffb17 	ldw	r2,-20(fp)
    24a4:	10800417 	ldw	r2,16(r2)
    24a8:	10001026 	beq	r2,zero,24ec <xQueueReceiveFromISR+0xb0>
				{
					if( xTaskRemoveFromEventList( &( pxQueue->xTasksWaitingToSend ) ) != pdFALSE )
    24ac:	e0bffb17 	ldw	r2,-20(fp)
    24b0:	10800404 	addi	r2,r2,16
    24b4:	1009883a 	mov	r4,r2
    24b8:	00035a00 	call	35a0 <xTaskRemoveFromEventList>
    24bc:	10000b26 	beq	r2,zero,24ec <xQueueReceiveFromISR+0xb0>
					{
						/* The task waiting has a higher priority than us so
						force a context switch. */
						if( pxHigherPriorityTaskWoken != NULL )
    24c0:	e0bfff17 	ldw	r2,-4(fp)
    24c4:	10000926 	beq	r2,zero,24ec <xQueueReceiveFromISR+0xb0>
						{
							*pxHigherPriorityTaskWoken = pdTRUE;
    24c8:	e0bfff17 	ldw	r2,-4(fp)
    24cc:	00c00044 	movi	r3,1
    24d0:	10c00015 	stw	r3,0(r2)
    24d4:	00000506 	br	24ec <xQueueReceiveFromISR+0xb0>
			}
			else
			{
				/* Increment the lock count so the task that unlocks the queue
				knows that data was removed while it was locked. */
				++( pxQueue->xRxLock );
    24d8:	e0bffb17 	ldw	r2,-20(fp)
    24dc:	10801117 	ldw	r2,68(r2)
    24e0:	10c00044 	addi	r3,r2,1
    24e4:	e0bffb17 	ldw	r2,-20(fp)
    24e8:	10c01115 	stw	r3,68(r2)
			}

			xReturn = pdPASS;
    24ec:	00800044 	movi	r2,1
    24f0:	e0bffa15 	stw	r2,-24(fp)
    24f4:	00000106 	br	24fc <xQueueReceiveFromISR+0xc0>
		}
		else
		{
			xReturn = pdFAIL;
    24f8:	e03ffa15 	stw	zero,-24(fp)
			traceQUEUE_RECEIVE_FROM_ISR_FAILED( pxQueue );
		}
	}
	portCLEAR_INTERRUPT_MASK_FROM_ISR( uxSavedInterruptStatus );

	return xReturn;
    24fc:	e0bffa17 	ldw	r2,-24(fp)
}
    2500:	e037883a 	mov	sp,fp
    2504:	dfc00117 	ldw	ra,4(sp)
    2508:	df000017 	ldw	fp,0(sp)
    250c:	dec00204 	addi	sp,sp,8
    2510:	f800283a 	ret

00002514 <xQueuePeekFromISR>:
/*-----------------------------------------------------------*/

BaseType_t xQueuePeekFromISR( QueueHandle_t xQueue,  void * const pvBuffer )
{
    2514:	defff804 	addi	sp,sp,-32
    2518:	dfc00715 	stw	ra,28(sp)
    251c:	df000615 	stw	fp,24(sp)
    2520:	df000604 	addi	fp,sp,24
    2524:	e13ffe15 	stw	r4,-8(fp)
    2528:	e17fff15 	stw	r5,-4(fp)
BaseType_t xReturn;
UBaseType_t uxSavedInterruptStatus;
int8_t *pcOriginalReadPosition;
Queue_t * const pxQueue = ( Queue_t * ) xQueue;
    252c:	e0bffe17 	ldw	r2,-8(fp)
    2530:	e0bffb15 	stw	r2,-20(fp)
	safe API to ensure interrupt entry is as fast and as simple as possible.
	More information (albeit Cortex-M specific) is provided on the following
	link: http://www.freertos.org/RTOS-Cortex-M3-M4.html */
	portASSERT_IF_INTERRUPT_PRIORITY_INVALID();

	uxSavedInterruptStatus = portSET_INTERRUPT_MASK_FROM_ISR();
    2534:	e03ffc15 	stw	zero,-16(fp)
	{
		/* Cannot block in an ISR, so check there is data available. */
		if( pxQueue->uxMessagesWaiting > ( UBaseType_t ) 0 )
    2538:	e0bffb17 	ldw	r2,-20(fp)
    253c:	10800e17 	ldw	r2,56(r2)
    2540:	10000c26 	beq	r2,zero,2574 <xQueuePeekFromISR+0x60>
		{
			traceQUEUE_PEEK_FROM_ISR( pxQueue );

			/* Remember the read position so it can be reset as nothing is
			actually being removed from the queue. */
			pcOriginalReadPosition = pxQueue->u.pcReadFrom;
    2544:	e0bffb17 	ldw	r2,-20(fp)
    2548:	10800317 	ldw	r2,12(r2)
    254c:	e0bffd15 	stw	r2,-12(fp)
			prvCopyDataFromQueue( pxQueue, pvBuffer );
    2550:	e17fff17 	ldw	r5,-4(fp)
    2554:	e13ffb17 	ldw	r4,-20(fp)
    2558:	00028200 	call	2820 <prvCopyDataFromQueue>
			pxQueue->u.pcReadFrom = pcOriginalReadPosition;
    255c:	e0bffb17 	ldw	r2,-20(fp)
    2560:	e0fffd17 	ldw	r3,-12(fp)
    2564:	10c00315 	stw	r3,12(r2)

			xReturn = pdPASS;
    2568:	00800044 	movi	r2,1
    256c:	e0bffa15 	stw	r2,-24(fp)
    2570:	00000106 	br	2578 <xQueuePeekFromISR+0x64>
		}
		else
		{
			xReturn = pdFAIL;
    2574:	e03ffa15 	stw	zero,-24(fp)
			traceQUEUE_PEEK_FROM_ISR_FAILED( pxQueue );
		}
	}
	portCLEAR_INTERRUPT_MASK_FROM_ISR( uxSavedInterruptStatus );

	return xReturn;
    2578:	e0bffa17 	ldw	r2,-24(fp)
}
    257c:	e037883a 	mov	sp,fp
    2580:	dfc00117 	ldw	ra,4(sp)
    2584:	df000017 	ldw	fp,0(sp)
    2588:	dec00204 	addi	sp,sp,8
    258c:	f800283a 	ret

00002590 <uxQueueMessagesWaiting>:
/*-----------------------------------------------------------*/

UBaseType_t uxQueueMessagesWaiting( const QueueHandle_t xQueue )
{
    2590:	defffc04 	addi	sp,sp,-16
    2594:	dfc00315 	stw	ra,12(sp)
    2598:	df000215 	stw	fp,8(sp)
    259c:	df000204 	addi	fp,sp,8
    25a0:	e13fff15 	stw	r4,-4(fp)
UBaseType_t uxReturn;

	configASSERT( xQueue );

	taskENTER_CRITICAL();
    25a4:	00040a80 	call	40a8 <vTaskEnterCritical>
	{
		uxReturn = ( ( Queue_t * ) xQueue )->uxMessagesWaiting;
    25a8:	e0bfff17 	ldw	r2,-4(fp)
    25ac:	10800e17 	ldw	r2,56(r2)
    25b0:	e0bffe15 	stw	r2,-8(fp)
	}
	taskEXIT_CRITICAL();
    25b4:	00040fc0 	call	40fc <vTaskExitCritical>

	return uxReturn;
    25b8:	e0bffe17 	ldw	r2,-8(fp)
} /*lint !e818 Pointer cannot be declared const as xQueue is a typedef not pointer. */
    25bc:	e037883a 	mov	sp,fp
    25c0:	dfc00117 	ldw	ra,4(sp)
    25c4:	df000017 	ldw	fp,0(sp)
    25c8:	dec00204 	addi	sp,sp,8
    25cc:	f800283a 	ret

000025d0 <uxQueueSpacesAvailable>:
/*-----------------------------------------------------------*/

UBaseType_t uxQueueSpacesAvailable( const QueueHandle_t xQueue )
{
    25d0:	defffb04 	addi	sp,sp,-20
    25d4:	dfc00415 	stw	ra,16(sp)
    25d8:	df000315 	stw	fp,12(sp)
    25dc:	df000304 	addi	fp,sp,12
    25e0:	e13fff15 	stw	r4,-4(fp)
UBaseType_t uxReturn;
Queue_t *pxQueue;

	pxQueue = ( Queue_t * ) xQueue;
    25e4:	e0bfff17 	ldw	r2,-4(fp)
    25e8:	e0bffd15 	stw	r2,-12(fp)
	configASSERT( pxQueue );

	taskENTER_CRITICAL();
    25ec:	00040a80 	call	40a8 <vTaskEnterCritical>
	{
		uxReturn = pxQueue->uxLength - pxQueue->uxMessagesWaiting;
    25f0:	e0bffd17 	ldw	r2,-12(fp)
    25f4:	10c00f17 	ldw	r3,60(r2)
    25f8:	e0bffd17 	ldw	r2,-12(fp)
    25fc:	10800e17 	ldw	r2,56(r2)
    2600:	1885c83a 	sub	r2,r3,r2
    2604:	e0bffe15 	stw	r2,-8(fp)
	}
	taskEXIT_CRITICAL();
    2608:	00040fc0 	call	40fc <vTaskExitCritical>

	return uxReturn;
    260c:	e0bffe17 	ldw	r2,-8(fp)
} /*lint !e818 Pointer cannot be declared const as xQueue is a typedef not pointer. */
    2610:	e037883a 	mov	sp,fp
    2614:	dfc00117 	ldw	ra,4(sp)
    2618:	df000017 	ldw	fp,0(sp)
    261c:	dec00204 	addi	sp,sp,8
    2620:	f800283a 	ret

00002624 <uxQueueMessagesWaitingFromISR>:
/*-----------------------------------------------------------*/

UBaseType_t uxQueueMessagesWaitingFromISR( const QueueHandle_t xQueue )
{
    2624:	defffd04 	addi	sp,sp,-12
    2628:	df000215 	stw	fp,8(sp)
    262c:	df000204 	addi	fp,sp,8
    2630:	e13fff15 	stw	r4,-4(fp)
UBaseType_t uxReturn;

	configASSERT( xQueue );

	uxReturn = ( ( Queue_t * ) xQueue )->uxMessagesWaiting;
    2634:	e0bfff17 	ldw	r2,-4(fp)
    2638:	10800e17 	ldw	r2,56(r2)
    263c:	e0bffe15 	stw	r2,-8(fp)

	return uxReturn;
    2640:	e0bffe17 	ldw	r2,-8(fp)
} /*lint !e818 Pointer cannot be declared const as xQueue is a typedef not pointer. */
    2644:	e037883a 	mov	sp,fp
    2648:	df000017 	ldw	fp,0(sp)
    264c:	dec00104 	addi	sp,sp,4
    2650:	f800283a 	ret

00002654 <vQueueDelete>:
/*-----------------------------------------------------------*/

void vQueueDelete( QueueHandle_t xQueue )
{
    2654:	defffc04 	addi	sp,sp,-16
    2658:	dfc00315 	stw	ra,12(sp)
    265c:	df000215 	stw	fp,8(sp)
    2660:	df000204 	addi	fp,sp,8
    2664:	e13fff15 	stw	r4,-4(fp)
Queue_t * const pxQueue = ( Queue_t * ) xQueue;
    2668:	e0bfff17 	ldw	r2,-4(fp)
    266c:	e0bffe15 	stw	r2,-8(fp)
	#if ( configQUEUE_REGISTRY_SIZE > 0 )
	{
		vQueueUnregisterQueue( pxQueue );
	}
	#endif
	vPortFree( pxQueue );
    2670:	e13ffe17 	ldw	r4,-8(fp)
    2674:	00011500 	call	1150 <vPortFree>
}
    2678:	0001883a 	nop
    267c:	e037883a 	mov	sp,fp
    2680:	dfc00117 	ldw	ra,4(sp)
    2684:	df000017 	ldw	fp,0(sp)
    2688:	dec00204 	addi	sp,sp,8
    268c:	f800283a 	ret

00002690 <prvCopyDataToQueue>:

#endif /* configUSE_TRACE_FACILITY */
/*-----------------------------------------------------------*/

static BaseType_t prvCopyDataToQueue( Queue_t * const pxQueue, const void *pvItemToQueue, const BaseType_t xPosition )
{
    2690:	defffa04 	addi	sp,sp,-24
    2694:	dfc00515 	stw	ra,20(sp)
    2698:	df000415 	stw	fp,16(sp)
    269c:	df000404 	addi	fp,sp,16
    26a0:	e13ffd15 	stw	r4,-12(fp)
    26a4:	e17ffe15 	stw	r5,-8(fp)
    26a8:	e1bfff15 	stw	r6,-4(fp)
BaseType_t xReturn = pdFALSE;
    26ac:	e03ffc15 	stw	zero,-16(fp)

	if( pxQueue->uxItemSize == ( UBaseType_t ) 0 )
    26b0:	e0bffd17 	ldw	r2,-12(fp)
    26b4:	10801017 	ldw	r2,64(r2)
    26b8:	10000b1e 	bne	r2,zero,26e8 <prvCopyDataToQueue+0x58>
	{
		#if ( configUSE_MUTEXES == 1 )
		{
			if( pxQueue->uxQueueType == queueQUEUE_IS_MUTEX )
    26bc:	e0bffd17 	ldw	r2,-12(fp)
    26c0:	10800017 	ldw	r2,0(r2)
    26c4:	10004b1e 	bne	r2,zero,27f4 <prvCopyDataToQueue+0x164>
			{
				/* The mutex is no longer being held. */
				xReturn = xTaskPriorityDisinherit( ( void * ) pxQueue->pxMutexHolder );
    26c8:	e0bffd17 	ldw	r2,-12(fp)
    26cc:	10800117 	ldw	r2,4(r2)
    26d0:	1009883a 	mov	r4,r2
    26d4:	0003fac0 	call	3fac <xTaskPriorityDisinherit>
    26d8:	e0bffc15 	stw	r2,-16(fp)
				pxQueue->pxMutexHolder = NULL;
    26dc:	e0bffd17 	ldw	r2,-12(fp)
    26e0:	10000115 	stw	zero,4(r2)
    26e4:	00004306 	br	27f4 <prvCopyDataToQueue+0x164>
				mtCOVERAGE_TEST_MARKER();
			}
		}
		#endif /* configUSE_MUTEXES */
	}
	else if( xPosition == queueSEND_TO_BACK )
    26e8:	e0bfff17 	ldw	r2,-4(fp)
    26ec:	1000191e 	bne	r2,zero,2754 <prvCopyDataToQueue+0xc4>
	{
		( void ) memcpy( ( void * ) pxQueue->pcWriteTo, pvItemToQueue, ( size_t ) pxQueue->uxItemSize ); /*lint !e961 !e418 MISRA exception as the casts are only redundant for some ports, plus previous logic ensures a null pointer can only be passed to memcpy() if the copy size is 0. */
    26f0:	e0bffd17 	ldw	r2,-12(fp)
    26f4:	10c00217 	ldw	r3,8(r2)
    26f8:	e0bffd17 	ldw	r2,-12(fp)
    26fc:	10801017 	ldw	r2,64(r2)
    2700:	100d883a 	mov	r6,r2
    2704:	e17ffe17 	ldw	r5,-8(fp)
    2708:	1809883a 	mov	r4,r3
    270c:	00097340 	call	9734 <memcpy>
		pxQueue->pcWriteTo += pxQueue->uxItemSize;
    2710:	e0bffd17 	ldw	r2,-12(fp)
    2714:	10c00217 	ldw	r3,8(r2)
    2718:	e0bffd17 	ldw	r2,-12(fp)
    271c:	10801017 	ldw	r2,64(r2)
    2720:	1887883a 	add	r3,r3,r2
    2724:	e0bffd17 	ldw	r2,-12(fp)
    2728:	10c00215 	stw	r3,8(r2)
		if( pxQueue->pcWriteTo >= pxQueue->pcTail ) /*lint !e946 MISRA exception justified as comparison of pointers is the cleanest solution. */
    272c:	e0bffd17 	ldw	r2,-12(fp)
    2730:	10c00217 	ldw	r3,8(r2)
    2734:	e0bffd17 	ldw	r2,-12(fp)
    2738:	10800117 	ldw	r2,4(r2)
    273c:	18802d36 	bltu	r3,r2,27f4 <prvCopyDataToQueue+0x164>
		{
			pxQueue->pcWriteTo = pxQueue->pcHead;
    2740:	e0bffd17 	ldw	r2,-12(fp)
    2744:	10c00017 	ldw	r3,0(r2)
    2748:	e0bffd17 	ldw	r2,-12(fp)
    274c:	10c00215 	stw	r3,8(r2)
    2750:	00002806 	br	27f4 <prvCopyDataToQueue+0x164>
			mtCOVERAGE_TEST_MARKER();
		}
	}
	else
	{
		( void ) memcpy( ( void * ) pxQueue->u.pcReadFrom, pvItemToQueue, ( size_t ) pxQueue->uxItemSize ); /*lint !e961 MISRA exception as the casts are only redundant for some ports. */
    2754:	e0bffd17 	ldw	r2,-12(fp)
    2758:	10c00317 	ldw	r3,12(r2)
    275c:	e0bffd17 	ldw	r2,-12(fp)
    2760:	10801017 	ldw	r2,64(r2)
    2764:	100d883a 	mov	r6,r2
    2768:	e17ffe17 	ldw	r5,-8(fp)
    276c:	1809883a 	mov	r4,r3
    2770:	00097340 	call	9734 <memcpy>
		pxQueue->u.pcReadFrom -= pxQueue->uxItemSize;
    2774:	e0bffd17 	ldw	r2,-12(fp)
    2778:	10c00317 	ldw	r3,12(r2)
    277c:	e0bffd17 	ldw	r2,-12(fp)
    2780:	10801017 	ldw	r2,64(r2)
    2784:	0085c83a 	sub	r2,zero,r2
    2788:	1887883a 	add	r3,r3,r2
    278c:	e0bffd17 	ldw	r2,-12(fp)
    2790:	10c00315 	stw	r3,12(r2)
		if( pxQueue->u.pcReadFrom < pxQueue->pcHead ) /*lint !e946 MISRA exception justified as comparison of pointers is the cleanest solution. */
    2794:	e0bffd17 	ldw	r2,-12(fp)
    2798:	10c00317 	ldw	r3,12(r2)
    279c:	e0bffd17 	ldw	r2,-12(fp)
    27a0:	10800017 	ldw	r2,0(r2)
    27a4:	1880082e 	bgeu	r3,r2,27c8 <prvCopyDataToQueue+0x138>
		{
			pxQueue->u.pcReadFrom = ( pxQueue->pcTail - pxQueue->uxItemSize );
    27a8:	e0bffd17 	ldw	r2,-12(fp)
    27ac:	10c00117 	ldw	r3,4(r2)
    27b0:	e0bffd17 	ldw	r2,-12(fp)
    27b4:	10801017 	ldw	r2,64(r2)
    27b8:	0085c83a 	sub	r2,zero,r2
    27bc:	1887883a 	add	r3,r3,r2
    27c0:	e0bffd17 	ldw	r2,-12(fp)
    27c4:	10c00315 	stw	r3,12(r2)
		else
		{
			mtCOVERAGE_TEST_MARKER();
		}

		if( xPosition == queueOVERWRITE )
    27c8:	e0bfff17 	ldw	r2,-4(fp)
    27cc:	10800098 	cmpnei	r2,r2,2
    27d0:	1000081e 	bne	r2,zero,27f4 <prvCopyDataToQueue+0x164>
		{
			if( pxQueue->uxMessagesWaiting > ( UBaseType_t ) 0 )
    27d4:	e0bffd17 	ldw	r2,-12(fp)
    27d8:	10800e17 	ldw	r2,56(r2)
    27dc:	10000526 	beq	r2,zero,27f4 <prvCopyDataToQueue+0x164>
			{
				/* An item is not being added but overwritten, so subtract
				one from the recorded number of items in the queue so when
				one is added again below the number of recorded items remains
				correct. */
				--( pxQueue->uxMessagesWaiting );
    27e0:	e0bffd17 	ldw	r2,-12(fp)
    27e4:	10800e17 	ldw	r2,56(r2)
    27e8:	10ffffc4 	addi	r3,r2,-1
    27ec:	e0bffd17 	ldw	r2,-12(fp)
    27f0:	10c00e15 	stw	r3,56(r2)
		{
			mtCOVERAGE_TEST_MARKER();
		}
	}

	++( pxQueue->uxMessagesWaiting );
    27f4:	e0bffd17 	ldw	r2,-12(fp)
    27f8:	10800e17 	ldw	r2,56(r2)
    27fc:	10c00044 	addi	r3,r2,1
    2800:	e0bffd17 	ldw	r2,-12(fp)
    2804:	10c00e15 	stw	r3,56(r2)

	return xReturn;
    2808:	e0bffc17 	ldw	r2,-16(fp)
}
    280c:	e037883a 	mov	sp,fp
    2810:	dfc00117 	ldw	ra,4(sp)
    2814:	df000017 	ldw	fp,0(sp)
    2818:	dec00204 	addi	sp,sp,8
    281c:	f800283a 	ret

00002820 <prvCopyDataFromQueue>:
/*-----------------------------------------------------------*/

static void prvCopyDataFromQueue( Queue_t * const pxQueue, void * const pvBuffer )
{
    2820:	defffc04 	addi	sp,sp,-16
    2824:	dfc00315 	stw	ra,12(sp)
    2828:	df000215 	stw	fp,8(sp)
    282c:	df000204 	addi	fp,sp,8
    2830:	e13ffe15 	stw	r4,-8(fp)
    2834:	e17fff15 	stw	r5,-4(fp)
	if( pxQueue->uxItemSize != ( UBaseType_t ) 0 )
    2838:	e0bffe17 	ldw	r2,-8(fp)
    283c:	10801017 	ldw	r2,64(r2)
    2840:	10001826 	beq	r2,zero,28a4 <prvCopyDataFromQueue+0x84>
	{
		pxQueue->u.pcReadFrom += pxQueue->uxItemSize;
    2844:	e0bffe17 	ldw	r2,-8(fp)
    2848:	10c00317 	ldw	r3,12(r2)
    284c:	e0bffe17 	ldw	r2,-8(fp)
    2850:	10801017 	ldw	r2,64(r2)
    2854:	1887883a 	add	r3,r3,r2
    2858:	e0bffe17 	ldw	r2,-8(fp)
    285c:	10c00315 	stw	r3,12(r2)
		if( pxQueue->u.pcReadFrom >= pxQueue->pcTail ) /*lint !e946 MISRA exception justified as use of the relational operator is the cleanest solutions. */
    2860:	e0bffe17 	ldw	r2,-8(fp)
    2864:	10c00317 	ldw	r3,12(r2)
    2868:	e0bffe17 	ldw	r2,-8(fp)
    286c:	10800117 	ldw	r2,4(r2)
    2870:	18800436 	bltu	r3,r2,2884 <prvCopyDataFromQueue+0x64>
		{
			pxQueue->u.pcReadFrom = pxQueue->pcHead;
    2874:	e0bffe17 	ldw	r2,-8(fp)
    2878:	10c00017 	ldw	r3,0(r2)
    287c:	e0bffe17 	ldw	r2,-8(fp)
    2880:	10c00315 	stw	r3,12(r2)
		}
		else
		{
			mtCOVERAGE_TEST_MARKER();
		}
		( void ) memcpy( ( void * ) pvBuffer, ( void * ) pxQueue->u.pcReadFrom, ( size_t ) pxQueue->uxItemSize ); /*lint !e961 !e418 MISRA exception as the casts are only redundant for some ports.  Also previous logic ensures a null pointer can only be passed to memcpy() when the count is 0. */
    2884:	e0bffe17 	ldw	r2,-8(fp)
    2888:	10c00317 	ldw	r3,12(r2)
    288c:	e0bffe17 	ldw	r2,-8(fp)
    2890:	10801017 	ldw	r2,64(r2)
    2894:	100d883a 	mov	r6,r2
    2898:	180b883a 	mov	r5,r3
    289c:	e13fff17 	ldw	r4,-4(fp)
    28a0:	00097340 	call	9734 <memcpy>
	}
}
    28a4:	0001883a 	nop
    28a8:	e037883a 	mov	sp,fp
    28ac:	dfc00117 	ldw	ra,4(sp)
    28b0:	df000017 	ldw	fp,0(sp)
    28b4:	dec00204 	addi	sp,sp,8
    28b8:	f800283a 	ret

000028bc <prvUnlockQueue>:
/*-----------------------------------------------------------*/

static void prvUnlockQueue( Queue_t * const pxQueue )
{
    28bc:	defffd04 	addi	sp,sp,-12
    28c0:	dfc00215 	stw	ra,8(sp)
    28c4:	df000115 	stw	fp,4(sp)
    28c8:	df000104 	addi	fp,sp,4
    28cc:	e13fff15 	stw	r4,-4(fp)

	/* The lock counts contains the number of extra data items placed or
	removed from the queue while the queue was locked.  When a queue is
	locked items can be added or removed, but the event lists cannot be
	updated. */
	taskENTER_CRITICAL();
    28d0:	00040a80 	call	40a8 <vTaskEnterCritical>
	{
		/* See if data was added to the queue while it was locked. */
		while( pxQueue->xTxLock > queueLOCKED_UNMODIFIED )
    28d4:	00000e06 	br	2910 <prvUnlockQueue+0x54>
			}
			#else /* configUSE_QUEUE_SETS */
			{
				/* Tasks that are removed from the event list will get added to
				the pending ready list as the scheduler is still suspended. */
				if( listLIST_IS_EMPTY( &( pxQueue->xTasksWaitingToReceive ) ) == pdFALSE )
    28d8:	e0bfff17 	ldw	r2,-4(fp)
    28dc:	10800917 	ldw	r2,36(r2)
    28e0:	10000f26 	beq	r2,zero,2920 <prvUnlockQueue+0x64>
				{
					if( xTaskRemoveFromEventList( &( pxQueue->xTasksWaitingToReceive ) ) != pdFALSE )
    28e4:	e0bfff17 	ldw	r2,-4(fp)
    28e8:	10800904 	addi	r2,r2,36
    28ec:	1009883a 	mov	r4,r2
    28f0:	00035a00 	call	35a0 <xTaskRemoveFromEventList>
    28f4:	10000126 	beq	r2,zero,28fc <prvUnlockQueue+0x40>
					{
						/* The task waiting has a higher priority so record that a
						context	switch is required. */
						vTaskMissedYield();
    28f8:	000386c0 	call	386c <vTaskMissedYield>
					break;
				}
			}
			#endif /* configUSE_QUEUE_SETS */

			--( pxQueue->xTxLock );
    28fc:	e0bfff17 	ldw	r2,-4(fp)
    2900:	10801217 	ldw	r2,72(r2)
    2904:	10ffffc4 	addi	r3,r2,-1
    2908:	e0bfff17 	ldw	r2,-4(fp)
    290c:	10c01215 	stw	r3,72(r2)
	locked items can be added or removed, but the event lists cannot be
	updated. */
	taskENTER_CRITICAL();
	{
		/* See if data was added to the queue while it was locked. */
		while( pxQueue->xTxLock > queueLOCKED_UNMODIFIED )
    2910:	e0bfff17 	ldw	r2,-4(fp)
    2914:	10801217 	ldw	r2,72(r2)
    2918:	00bfef16 	blt	zero,r2,28d8 <__alt_data_end+0xf00028d8>
    291c:	00000106 	br	2924 <prvUnlockQueue+0x68>
						mtCOVERAGE_TEST_MARKER();
					}
				}
				else
				{
					break;
    2920:	0001883a 	nop
			#endif /* configUSE_QUEUE_SETS */

			--( pxQueue->xTxLock );
		}

		pxQueue->xTxLock = queueUNLOCKED;
    2924:	e0bfff17 	ldw	r2,-4(fp)
    2928:	00ffffc4 	movi	r3,-1
    292c:	10c01215 	stw	r3,72(r2)
	}
	taskEXIT_CRITICAL();
    2930:	00040fc0 	call	40fc <vTaskExitCritical>

	/* Do the same for the Rx lock. */
	taskENTER_CRITICAL();
    2934:	00040a80 	call	40a8 <vTaskEnterCritical>
	{
		while( pxQueue->xRxLock > queueLOCKED_UNMODIFIED )
    2938:	00000e06 	br	2974 <prvUnlockQueue+0xb8>
		{
			if( listLIST_IS_EMPTY( &( pxQueue->xTasksWaitingToSend ) ) == pdFALSE )
    293c:	e0bfff17 	ldw	r2,-4(fp)
    2940:	10800417 	ldw	r2,16(r2)
    2944:	10000f26 	beq	r2,zero,2984 <prvUnlockQueue+0xc8>
			{
				if( xTaskRemoveFromEventList( &( pxQueue->xTasksWaitingToSend ) ) != pdFALSE )
    2948:	e0bfff17 	ldw	r2,-4(fp)
    294c:	10800404 	addi	r2,r2,16
    2950:	1009883a 	mov	r4,r2
    2954:	00035a00 	call	35a0 <xTaskRemoveFromEventList>
    2958:	10000126 	beq	r2,zero,2960 <prvUnlockQueue+0xa4>
				{
					vTaskMissedYield();
    295c:	000386c0 	call	386c <vTaskMissedYield>
				else
				{
					mtCOVERAGE_TEST_MARKER();
				}

				--( pxQueue->xRxLock );
    2960:	e0bfff17 	ldw	r2,-4(fp)
    2964:	10801117 	ldw	r2,68(r2)
    2968:	10ffffc4 	addi	r3,r2,-1
    296c:	e0bfff17 	ldw	r2,-4(fp)
    2970:	10c01115 	stw	r3,68(r2)
	taskEXIT_CRITICAL();

	/* Do the same for the Rx lock. */
	taskENTER_CRITICAL();
	{
		while( pxQueue->xRxLock > queueLOCKED_UNMODIFIED )
    2974:	e0bfff17 	ldw	r2,-4(fp)
    2978:	10801117 	ldw	r2,68(r2)
    297c:	00bfef16 	blt	zero,r2,293c <__alt_data_end+0xf000293c>
    2980:	00000106 	br	2988 <prvUnlockQueue+0xcc>

				--( pxQueue->xRxLock );
			}
			else
			{
				break;
    2984:	0001883a 	nop
			}
		}

		pxQueue->xRxLock = queueUNLOCKED;
    2988:	e0bfff17 	ldw	r2,-4(fp)
    298c:	00ffffc4 	movi	r3,-1
    2990:	10c01115 	stw	r3,68(r2)
	}
	taskEXIT_CRITICAL();
    2994:	00040fc0 	call	40fc <vTaskExitCritical>
}
    2998:	0001883a 	nop
    299c:	e037883a 	mov	sp,fp
    29a0:	dfc00117 	ldw	ra,4(sp)
    29a4:	df000017 	ldw	fp,0(sp)
    29a8:	dec00204 	addi	sp,sp,8
    29ac:	f800283a 	ret

000029b0 <prvIsQueueEmpty>:
/*-----------------------------------------------------------*/

static BaseType_t prvIsQueueEmpty( const Queue_t *pxQueue )
{
    29b0:	defffc04 	addi	sp,sp,-16
    29b4:	dfc00315 	stw	ra,12(sp)
    29b8:	df000215 	stw	fp,8(sp)
    29bc:	df000204 	addi	fp,sp,8
    29c0:	e13fff15 	stw	r4,-4(fp)
BaseType_t xReturn;

	taskENTER_CRITICAL();
    29c4:	00040a80 	call	40a8 <vTaskEnterCritical>
	{
		if( pxQueue->uxMessagesWaiting == ( UBaseType_t )  0 )
    29c8:	e0bfff17 	ldw	r2,-4(fp)
    29cc:	10800e17 	ldw	r2,56(r2)
    29d0:	1000031e 	bne	r2,zero,29e0 <prvIsQueueEmpty+0x30>
		{
			xReturn = pdTRUE;
    29d4:	00800044 	movi	r2,1
    29d8:	e0bffe15 	stw	r2,-8(fp)
    29dc:	00000106 	br	29e4 <prvIsQueueEmpty+0x34>
		}
		else
		{
			xReturn = pdFALSE;
    29e0:	e03ffe15 	stw	zero,-8(fp)
		}
	}
	taskEXIT_CRITICAL();
    29e4:	00040fc0 	call	40fc <vTaskExitCritical>

	return xReturn;
    29e8:	e0bffe17 	ldw	r2,-8(fp)
}
    29ec:	e037883a 	mov	sp,fp
    29f0:	dfc00117 	ldw	ra,4(sp)
    29f4:	df000017 	ldw	fp,0(sp)
    29f8:	dec00204 	addi	sp,sp,8
    29fc:	f800283a 	ret

00002a00 <xQueueIsQueueEmptyFromISR>:
/*-----------------------------------------------------------*/

BaseType_t xQueueIsQueueEmptyFromISR( const QueueHandle_t xQueue )
{
    2a00:	defffd04 	addi	sp,sp,-12
    2a04:	df000215 	stw	fp,8(sp)
    2a08:	df000204 	addi	fp,sp,8
    2a0c:	e13fff15 	stw	r4,-4(fp)
BaseType_t xReturn;

	configASSERT( xQueue );
	if( ( ( Queue_t * ) xQueue )->uxMessagesWaiting == ( UBaseType_t ) 0 )
    2a10:	e0bfff17 	ldw	r2,-4(fp)
    2a14:	10800e17 	ldw	r2,56(r2)
    2a18:	1000031e 	bne	r2,zero,2a28 <xQueueIsQueueEmptyFromISR+0x28>
	{
		xReturn = pdTRUE;
    2a1c:	00800044 	movi	r2,1
    2a20:	e0bffe15 	stw	r2,-8(fp)
    2a24:	00000106 	br	2a2c <xQueueIsQueueEmptyFromISR+0x2c>
	}
	else
	{
		xReturn = pdFALSE;
    2a28:	e03ffe15 	stw	zero,-8(fp)
	}

	return xReturn;
    2a2c:	e0bffe17 	ldw	r2,-8(fp)
} /*lint !e818 xQueue could not be pointer to const because it is a typedef. */
    2a30:	e037883a 	mov	sp,fp
    2a34:	df000017 	ldw	fp,0(sp)
    2a38:	dec00104 	addi	sp,sp,4
    2a3c:	f800283a 	ret

00002a40 <prvIsQueueFull>:
/*-----------------------------------------------------------*/

static BaseType_t prvIsQueueFull( const Queue_t *pxQueue )
{
    2a40:	defffc04 	addi	sp,sp,-16
    2a44:	dfc00315 	stw	ra,12(sp)
    2a48:	df000215 	stw	fp,8(sp)
    2a4c:	df000204 	addi	fp,sp,8
    2a50:	e13fff15 	stw	r4,-4(fp)
BaseType_t xReturn;

	taskENTER_CRITICAL();
    2a54:	00040a80 	call	40a8 <vTaskEnterCritical>
	{
		if( pxQueue->uxMessagesWaiting == pxQueue->uxLength )
    2a58:	e0bfff17 	ldw	r2,-4(fp)
    2a5c:	10c00e17 	ldw	r3,56(r2)
    2a60:	e0bfff17 	ldw	r2,-4(fp)
    2a64:	10800f17 	ldw	r2,60(r2)
    2a68:	1880031e 	bne	r3,r2,2a78 <prvIsQueueFull+0x38>
		{
			xReturn = pdTRUE;
    2a6c:	00800044 	movi	r2,1
    2a70:	e0bffe15 	stw	r2,-8(fp)
    2a74:	00000106 	br	2a7c <prvIsQueueFull+0x3c>
		}
		else
		{
			xReturn = pdFALSE;
    2a78:	e03ffe15 	stw	zero,-8(fp)
		}
	}
	taskEXIT_CRITICAL();
    2a7c:	00040fc0 	call	40fc <vTaskExitCritical>

	return xReturn;
    2a80:	e0bffe17 	ldw	r2,-8(fp)
}
    2a84:	e037883a 	mov	sp,fp
    2a88:	dfc00117 	ldw	ra,4(sp)
    2a8c:	df000017 	ldw	fp,0(sp)
    2a90:	dec00204 	addi	sp,sp,8
    2a94:	f800283a 	ret

00002a98 <xQueueIsQueueFullFromISR>:
/*-----------------------------------------------------------*/

BaseType_t xQueueIsQueueFullFromISR( const QueueHandle_t xQueue )
{
    2a98:	defffd04 	addi	sp,sp,-12
    2a9c:	df000215 	stw	fp,8(sp)
    2aa0:	df000204 	addi	fp,sp,8
    2aa4:	e13fff15 	stw	r4,-4(fp)
BaseType_t xReturn;

	configASSERT( xQueue );
	if( ( ( Queue_t * ) xQueue )->uxMessagesWaiting == ( ( Queue_t * ) xQueue )->uxLength )
    2aa8:	e0bfff17 	ldw	r2,-4(fp)
    2aac:	10c00e17 	ldw	r3,56(r2)
    2ab0:	e0bfff17 	ldw	r2,-4(fp)
    2ab4:	10800f17 	ldw	r2,60(r2)
    2ab8:	1880031e 	bne	r3,r2,2ac8 <xQueueIsQueueFullFromISR+0x30>
	{
		xReturn = pdTRUE;
    2abc:	00800044 	movi	r2,1
    2ac0:	e0bffe15 	stw	r2,-8(fp)
    2ac4:	00000106 	br	2acc <xQueueIsQueueFullFromISR+0x34>
	}
	else
	{
		xReturn = pdFALSE;
    2ac8:	e03ffe15 	stw	zero,-8(fp)
	}

	return xReturn;
    2acc:	e0bffe17 	ldw	r2,-8(fp)
} /*lint !e818 xQueue could not be pointer to const because it is a typedef. */
    2ad0:	e037883a 	mov	sp,fp
    2ad4:	df000017 	ldw	fp,0(sp)
    2ad8:	dec00104 	addi	sp,sp,4
    2adc:	f800283a 	ret

00002ae0 <vQueueWaitForMessageRestricted>:
/*-----------------------------------------------------------*/

#if ( configUSE_TIMERS == 1 )

	void vQueueWaitForMessageRestricted( QueueHandle_t xQueue, TickType_t xTicksToWait )
	{
    2ae0:	defffb04 	addi	sp,sp,-20
    2ae4:	dfc00415 	stw	ra,16(sp)
    2ae8:	df000315 	stw	fp,12(sp)
    2aec:	df000304 	addi	fp,sp,12
    2af0:	e13ffe15 	stw	r4,-8(fp)
    2af4:	e17fff15 	stw	r5,-4(fp)
	Queue_t * const pxQueue = ( Queue_t * ) xQueue;
    2af8:	e0bffe17 	ldw	r2,-8(fp)
    2afc:	e0bffd15 	stw	r2,-12(fp)
		will not actually cause the task to block, just place it on a blocked
		list.  It will not block until the scheduler is unlocked - at which
		time a yield will be performed.  If an item is added to the queue while
		the queue is locked, and the calling task blocks on the queue, then the
		calling task will be immediately unblocked when the queue is unlocked. */
		prvLockQueue( pxQueue );
    2b00:	00040a80 	call	40a8 <vTaskEnterCritical>
    2b04:	e0bffd17 	ldw	r2,-12(fp)
    2b08:	10801117 	ldw	r2,68(r2)
    2b0c:	10bfffd8 	cmpnei	r2,r2,-1
    2b10:	1000021e 	bne	r2,zero,2b1c <vQueueWaitForMessageRestricted+0x3c>
    2b14:	e0bffd17 	ldw	r2,-12(fp)
    2b18:	10001115 	stw	zero,68(r2)
    2b1c:	e0bffd17 	ldw	r2,-12(fp)
    2b20:	10801217 	ldw	r2,72(r2)
    2b24:	10bfffd8 	cmpnei	r2,r2,-1
    2b28:	1000021e 	bne	r2,zero,2b34 <vQueueWaitForMessageRestricted+0x54>
    2b2c:	e0bffd17 	ldw	r2,-12(fp)
    2b30:	10001215 	stw	zero,72(r2)
    2b34:	00040fc0 	call	40fc <vTaskExitCritical>
		if( pxQueue->uxMessagesWaiting == ( UBaseType_t ) 0U )
    2b38:	e0bffd17 	ldw	r2,-12(fp)
    2b3c:	10800e17 	ldw	r2,56(r2)
    2b40:	1000051e 	bne	r2,zero,2b58 <vQueueWaitForMessageRestricted+0x78>
		{
			/* There is nothing in the queue, block for the specified period. */
			vTaskPlaceOnEventListRestricted( &( pxQueue->xTasksWaitingToReceive ), xTicksToWait );
    2b44:	e0bffd17 	ldw	r2,-12(fp)
    2b48:	10800904 	addi	r2,r2,36
    2b4c:	e17fff17 	ldw	r5,-4(fp)
    2b50:	1009883a 	mov	r4,r2
    2b54:	00035340 	call	3534 <vTaskPlaceOnEventListRestricted>
		}
		else
		{
			mtCOVERAGE_TEST_MARKER();
		}
		prvUnlockQueue( pxQueue );
    2b58:	e13ffd17 	ldw	r4,-12(fp)
    2b5c:	00028bc0 	call	28bc <prvUnlockQueue>
	}
    2b60:	0001883a 	nop
    2b64:	e037883a 	mov	sp,fp
    2b68:	dfc00117 	ldw	ra,4(sp)
    2b6c:	df000017 	ldw	fp,0(sp)
    2b70:	dec00204 	addi	sp,sp,8
    2b74:	f800283a 	ret

00002b78 <xTaskGenericCreate>:

#endif
/*-----------------------------------------------------------*/

BaseType_t xTaskGenericCreate( TaskFunction_t pxTaskCode, const char * const pcName, const uint16_t usStackDepth, void * const pvParameters, UBaseType_t uxPriority, TaskHandle_t * const pxCreatedTask, StackType_t * const puxStackBuffer, const MemoryRegion_t * const xRegions ) /*lint !e971 Unqualified char types are allowed for strings and single characters only. */
{
    2b78:	defff604 	addi	sp,sp,-40
    2b7c:	dfc00915 	stw	ra,36(sp)
    2b80:	df000815 	stw	fp,32(sp)
    2b84:	df000804 	addi	fp,sp,32
    2b88:	e13ffc15 	stw	r4,-16(fp)
    2b8c:	e17ffd15 	stw	r5,-12(fp)
    2b90:	3005883a 	mov	r2,r6
    2b94:	e1ffff15 	stw	r7,-4(fp)
    2b98:	e0bffe0d 	sth	r2,-8(fp)
	configASSERT( pxTaskCode );
	configASSERT( ( ( uxPriority & ( ~portPRIVILEGE_BIT ) ) < configMAX_PRIORITIES ) );

	/* Allocate the memory required by the TCB and stack for the new task,
	checking that the allocation was successful. */
	pxNewTCB = prvAllocateTCBAndStack( usStackDepth, puxStackBuffer );
    2b9c:	e0bffe0b 	ldhu	r2,-8(fp)
    2ba0:	e1400417 	ldw	r5,16(fp)
    2ba4:	1009883a 	mov	r4,r2
    2ba8:	0003bdc0 	call	3bdc <prvAllocateTCBAndStack>
    2bac:	e0bffa15 	stw	r2,-24(fp)

	if( pxNewTCB != NULL )
    2bb0:	e0bffa17 	ldw	r2,-24(fp)
    2bb4:	10004f26 	beq	r2,zero,2cf4 <xTaskGenericCreate+0x17c>
		stack grows from high memory to low (as per the 80x86) or vice versa.
		portSTACK_GROWTH is used to make the result positive or negative as
		required by the port. */
		#if( portSTACK_GROWTH < 0 )
		{
			pxTopOfStack = pxNewTCB->pxStack + ( usStackDepth - ( uint16_t ) 1 );
    2bb8:	e0bffa17 	ldw	r2,-24(fp)
    2bbc:	10c00c17 	ldw	r3,48(r2)
    2bc0:	e13ffe0b 	ldhu	r4,-8(fp)
    2bc4:	00900034 	movhi	r2,16384
    2bc8:	10bfffc4 	addi	r2,r2,-1
    2bcc:	2085883a 	add	r2,r4,r2
    2bd0:	1085883a 	add	r2,r2,r2
    2bd4:	1085883a 	add	r2,r2,r2
    2bd8:	1885883a 	add	r2,r3,r2
    2bdc:	e0bffb15 	stw	r2,-20(fp)
			pxTopOfStack = ( StackType_t * ) ( ( ( portPOINTER_SIZE_TYPE ) pxTopOfStack ) & ( ( portPOINTER_SIZE_TYPE ) ~portBYTE_ALIGNMENT_MASK  ) ); /*lint !e923 MISRA exception.  Avoiding casts between pointers and integers is not practical.  Size differences accounted for using portPOINTER_SIZE_TYPE type. */
    2be0:	e0fffb17 	ldw	r3,-20(fp)
    2be4:	00bfff04 	movi	r2,-4
    2be8:	1884703a 	and	r2,r3,r2
    2bec:	e0bffb15 	stw	r2,-20(fp)
			pxNewTCB->pxEndOfStack = pxNewTCB->pxStack + ( usStackDepth - 1 );
		}
		#endif /* portSTACK_GROWTH */

		/* Setup the newly allocated TCB with the initial state of the task. */
		prvInitialiseTCBVariables( pxNewTCB, pcName, uxPriority, xRegions, usStackDepth );
    2bf0:	e0bffe0b 	ldhu	r2,-8(fp)
    2bf4:	d8800015 	stw	r2,0(sp)
    2bf8:	e1c00517 	ldw	r7,20(fp)
    2bfc:	e1800217 	ldw	r6,8(fp)
    2c00:	e17ffd17 	ldw	r5,-12(fp)
    2c04:	e13ffa17 	ldw	r4,-24(fp)
    2c08:	00038b00 	call	38b0 <prvInitialiseTCBVariables>
		{
			pxNewTCB->pxTopOfStack = pxPortInitialiseStack( pxTopOfStack, pxTaskCode, pvParameters, xRunPrivileged );
		}
		#else /* portUSING_MPU_WRAPPERS */
		{
			pxNewTCB->pxTopOfStack = pxPortInitialiseStack( pxTopOfStack, pxTaskCode, pvParameters );
    2c0c:	e1bfff17 	ldw	r6,-4(fp)
    2c10:	e17ffc17 	ldw	r5,-16(fp)
    2c14:	e13ffb17 	ldw	r4,-20(fp)
    2c18:	00017000 	call	1700 <pxPortInitialiseStack>
    2c1c:	1007883a 	mov	r3,r2
    2c20:	e0bffa17 	ldw	r2,-24(fp)
    2c24:	10c00015 	stw	r3,0(r2)
		}
		#endif /* portUSING_MPU_WRAPPERS */

		if( ( void * ) pxCreatedTask != NULL )
    2c28:	e0800317 	ldw	r2,12(fp)
    2c2c:	10000326 	beq	r2,zero,2c3c <xTaskGenericCreate+0xc4>
		{
			/* Pass the TCB out - in an anonymous way.  The calling function/
			task can use this as a handle to delete the task later if
			required.*/
			*pxCreatedTask = ( TaskHandle_t ) pxNewTCB;
    2c30:	e0800317 	ldw	r2,12(fp)
    2c34:	e0fffa17 	ldw	r3,-24(fp)
    2c38:	10c00015 	stw	r3,0(r2)
			mtCOVERAGE_TEST_MARKER();
		}

		/* Ensure interrupts don't access the task lists while they are being
		updated. */
		taskENTER_CRITICAL();
    2c3c:	00040a80 	call	40a8 <vTaskEnterCritical>
		{
			uxCurrentNumberOfTasks++;
    2c40:	d0a02697 	ldw	r2,-32614(gp)
    2c44:	10800044 	addi	r2,r2,1
    2c48:	d0a02695 	stw	r2,-32614(gp)
			if( pxCurrentTCB == NULL )
    2c4c:	d0a02297 	ldw	r2,-32630(gp)
    2c50:	1000071e 	bne	r2,zero,2c70 <xTaskGenericCreate+0xf8>
			{
				/* There are no other tasks, or all the other tasks are in
				the suspended state - make this the current task. */
				pxCurrentTCB =  pxNewTCB;
    2c54:	e0bffa17 	ldw	r2,-24(fp)
    2c58:	d0a02295 	stw	r2,-32630(gp)

				if( uxCurrentNumberOfTasks == ( UBaseType_t ) 1 )
    2c5c:	d0a02697 	ldw	r2,-32614(gp)
    2c60:	10800058 	cmpnei	r2,r2,1
    2c64:	10000a1e 	bne	r2,zero,2c90 <xTaskGenericCreate+0x118>
				{
					/* This is the first task to be created so do the preliminary
					initialisation required.  We will not recover if this call
					fails, but we will report the failure. */
					prvInitialiseTaskLists();
    2c68:	00039fc0 	call	39fc <prvInitialiseTaskLists>
    2c6c:	00000806 	br	2c90 <xTaskGenericCreate+0x118>
			else
			{
				/* If the scheduler is not already running, make this task the
				current task if it is the highest priority task to be created
				so far. */
				if( xSchedulerRunning == pdFALSE )
    2c70:	d0a02997 	ldw	r2,-32602(gp)
    2c74:	1000061e 	bne	r2,zero,2c90 <xTaskGenericCreate+0x118>
				{
					if( pxCurrentTCB->uxPriority <= uxPriority )
    2c78:	d0a02297 	ldw	r2,-32630(gp)
    2c7c:	10800b17 	ldw	r2,44(r2)
    2c80:	e0c00217 	ldw	r3,8(fp)
    2c84:	18800236 	bltu	r3,r2,2c90 <xTaskGenericCreate+0x118>
					{
						pxCurrentTCB = pxNewTCB;
    2c88:	e0bffa17 	ldw	r2,-24(fp)
    2c8c:	d0a02295 	stw	r2,-32630(gp)
				{
					mtCOVERAGE_TEST_MARKER();
				}
			}

			uxTaskNumber++;
    2c90:	d0a02d97 	ldw	r2,-32586(gp)
    2c94:	10800044 	addi	r2,r2,1
    2c98:	d0a02d95 	stw	r2,-32586(gp)
				pxNewTCB->uxTCBNumber = uxTaskNumber;
			}
			#endif /* configUSE_TRACE_FACILITY */
			traceTASK_CREATE( pxNewTCB );

			prvAddTaskToReadyList( pxNewTCB );
    2c9c:	e0bffa17 	ldw	r2,-24(fp)
    2ca0:	10800b17 	ldw	r2,44(r2)
    2ca4:	d0e02897 	ldw	r3,-32606(gp)
    2ca8:	1880032e 	bgeu	r3,r2,2cb8 <xTaskGenericCreate+0x140>
    2cac:	e0bffa17 	ldw	r2,-24(fp)
    2cb0:	10800b17 	ldw	r2,44(r2)
    2cb4:	d0a02895 	stw	r2,-32606(gp)
    2cb8:	e0bffa17 	ldw	r2,-24(fp)
    2cbc:	10800b17 	ldw	r2,44(r2)
    2cc0:	10c00524 	muli	r3,r2,20
    2cc4:	00820234 	movhi	r2,2056
    2cc8:	10bf9904 	addi	r2,r2,-412
    2ccc:	1887883a 	add	r3,r3,r2
    2cd0:	e0bffa17 	ldw	r2,-24(fp)
    2cd4:	10800104 	addi	r2,r2,4
    2cd8:	100b883a 	mov	r5,r2
    2cdc:	1809883a 	mov	r4,r3
    2ce0:	00014980 	call	1498 <vListInsertEnd>

			xReturn = pdPASS;
    2ce4:	00800044 	movi	r2,1
    2ce8:	e0bff915 	stw	r2,-28(fp)
			portSETUP_TCB( pxNewTCB );
		}
		taskEXIT_CRITICAL();
    2cec:	00040fc0 	call	40fc <vTaskExitCritical>
    2cf0:	00000206 	br	2cfc <xTaskGenericCreate+0x184>
	}
	else
	{
		xReturn = errCOULD_NOT_ALLOCATE_REQUIRED_MEMORY;
    2cf4:	00bfffc4 	movi	r2,-1
    2cf8:	e0bff915 	stw	r2,-28(fp)
		traceTASK_CREATE_FAILED();
	}

	if( xReturn == pdPASS )
    2cfc:	e0bff917 	ldw	r2,-28(fp)
    2d00:	10800058 	cmpnei	r2,r2,1
    2d04:	1000071e 	bne	r2,zero,2d24 <xTaskGenericCreate+0x1ac>
	{
		if( xSchedulerRunning != pdFALSE )
    2d08:	d0a02997 	ldw	r2,-32602(gp)
    2d0c:	10000526 	beq	r2,zero,2d24 <xTaskGenericCreate+0x1ac>
		{
			/* If the created task is of a higher priority than the current task
			then it should run now. */
			if( pxCurrentTCB->uxPriority < uxPriority )
    2d10:	d0a02297 	ldw	r2,-32630(gp)
    2d14:	10c00b17 	ldw	r3,44(r2)
    2d18:	e0800217 	ldw	r2,8(fp)
    2d1c:	1880012e 	bgeu	r3,r2,2d24 <xTaskGenericCreate+0x1ac>
			{
				taskYIELD_IF_USING_PREEMPTION();
    2d20:	003b683a 	trap	0
		{
			mtCOVERAGE_TEST_MARKER();
		}
	}

	return xReturn;
    2d24:	e0bff917 	ldw	r2,-28(fp)
}
    2d28:	e037883a 	mov	sp,fp
    2d2c:	dfc00117 	ldw	ra,4(sp)
    2d30:	df000017 	ldw	fp,0(sp)
    2d34:	dec00204 	addi	sp,sp,8
    2d38:	f800283a 	ret

00002d3c <vTaskDelete>:
/*-----------------------------------------------------------*/

#if ( INCLUDE_vTaskDelete == 1 )

	void vTaskDelete( TaskHandle_t xTaskToDelete )
	{
    2d3c:	defffc04 	addi	sp,sp,-16
    2d40:	dfc00315 	stw	ra,12(sp)
    2d44:	df000215 	stw	fp,8(sp)
    2d48:	df000204 	addi	fp,sp,8
    2d4c:	e13fff15 	stw	r4,-4(fp)
	TCB_t *pxTCB;

		taskENTER_CRITICAL();
    2d50:	00040a80 	call	40a8 <vTaskEnterCritical>
		{
			/* If null is passed in here then it is the calling task that is
			being deleted. */
			pxTCB = prvGetTCBFromHandle( xTaskToDelete );
    2d54:	e0bfff17 	ldw	r2,-4(fp)
    2d58:	1000021e 	bne	r2,zero,2d64 <vTaskDelete+0x28>
    2d5c:	d0a02297 	ldw	r2,-32630(gp)
    2d60:	00000106 	br	2d68 <vTaskDelete+0x2c>
    2d64:	e0bfff17 	ldw	r2,-4(fp)
    2d68:	e0bffe15 	stw	r2,-8(fp)

			/* Remove task from the ready list and place in the	termination list.
			This will stop the task from be scheduled.  The idle task will check
			the termination list and free up any memory allocated by the
			scheduler for the TCB and stack. */
			if( uxListRemove( &( pxTCB->xGenericListItem ) ) == ( UBaseType_t ) 0 )
    2d6c:	e0bffe17 	ldw	r2,-8(fp)
    2d70:	10800104 	addi	r2,r2,4
    2d74:	1009883a 	mov	r4,r2
    2d78:	00015fc0 	call	15fc <uxListRemove>
			{
				mtCOVERAGE_TEST_MARKER();
			}

			/* Is the task waiting on an event also? */
			if( listLIST_ITEM_CONTAINER( &( pxTCB->xEventListItem ) ) != NULL )
    2d7c:	e0bffe17 	ldw	r2,-8(fp)
    2d80:	10800a17 	ldw	r2,40(r2)
    2d84:	10000426 	beq	r2,zero,2d98 <vTaskDelete+0x5c>
			{
				( void ) uxListRemove( &( pxTCB->xEventListItem ) );
    2d88:	e0bffe17 	ldw	r2,-8(fp)
    2d8c:	10800604 	addi	r2,r2,24
    2d90:	1009883a 	mov	r4,r2
    2d94:	00015fc0 	call	15fc <uxListRemove>
			else
			{
				mtCOVERAGE_TEST_MARKER();
			}

			vListInsertEnd( &xTasksWaitingTermination, &( pxTCB->xGenericListItem ) );
    2d98:	e0bffe17 	ldw	r2,-8(fp)
    2d9c:	10800104 	addi	r2,r2,4
    2da0:	100b883a 	mov	r5,r2
    2da4:	01020234 	movhi	r4,2056
    2da8:	213fe404 	addi	r4,r4,-112
    2dac:	00014980 	call	1498 <vListInsertEnd>

			/* Increment the ucTasksDeleted variable so the idle task knows
			there is a task that has been deleted and that it should therefore
			check the xTasksWaitingTermination list. */
			++uxTasksDeleted;
    2db0:	d0a02597 	ldw	r2,-32618(gp)
    2db4:	10800044 	addi	r2,r2,1
    2db8:	d0a02595 	stw	r2,-32618(gp)

			/* Increment the uxTaskNumberVariable also so kernel aware debuggers
			can detect that the task lists need re-generating. */
			uxTaskNumber++;
    2dbc:	d0a02d97 	ldw	r2,-32586(gp)
    2dc0:	10800044 	addi	r2,r2,1
    2dc4:	d0a02d95 	stw	r2,-32586(gp)

			traceTASK_DELETE( pxTCB );
		}
		taskEXIT_CRITICAL();
    2dc8:	00040fc0 	call	40fc <vTaskExitCritical>

		/* Force a reschedule if it is the currently running task that has just
		been deleted. */
		if( xSchedulerRunning != pdFALSE )
    2dcc:	d0a02997 	ldw	r2,-32602(gp)
    2dd0:	10000826 	beq	r2,zero,2df4 <vTaskDelete+0xb8>
		{
			if( pxTCB == pxCurrentTCB )
    2dd4:	d0a02297 	ldw	r2,-32630(gp)
    2dd8:	e0fffe17 	ldw	r3,-8(fp)
    2ddc:	1880021e 	bne	r3,r2,2de8 <vTaskDelete+0xac>
				in which Windows specific clean up operations are performed,
				after which it is not possible to yield away from this task -
				hence xYieldPending is used to latch that a context switch is
				required. */
				portPRE_TASK_DELETE_HOOK( pxTCB, &xYieldPending );
				portYIELD_WITHIN_API();
    2de0:	003b683a 	trap	0
					prvResetNextTaskUnblockTime();
				}
				taskEXIT_CRITICAL();
			}
		}
	}
    2de4:	00000306 	br	2df4 <vTaskDelete+0xb8>
			}
			else
			{
				/* Reset the next expected unblock time in case it referred to
				the task that has just been deleted. */
				taskENTER_CRITICAL();
    2de8:	00040a80 	call	40a8 <vTaskEnterCritical>
				{
					prvResetNextTaskUnblockTime();
    2dec:	0003da80 	call	3da8 <prvResetNextTaskUnblockTime>
				}
				taskEXIT_CRITICAL();
    2df0:	00040fc0 	call	40fc <vTaskExitCritical>
			}
		}
	}
    2df4:	0001883a 	nop
    2df8:	e037883a 	mov	sp,fp
    2dfc:	dfc00117 	ldw	ra,4(sp)
    2e00:	df000017 	ldw	fp,0(sp)
    2e04:	dec00204 	addi	sp,sp,8
    2e08:	f800283a 	ret

00002e0c <vTaskDelay>:
/*-----------------------------------------------------------*/

#if ( INCLUDE_vTaskDelay == 1 )

	void vTaskDelay( const TickType_t xTicksToDelay )
	{
    2e0c:	defffb04 	addi	sp,sp,-20
    2e10:	dfc00415 	stw	ra,16(sp)
    2e14:	df000315 	stw	fp,12(sp)
    2e18:	df000304 	addi	fp,sp,12
    2e1c:	e13fff15 	stw	r4,-4(fp)
	TickType_t xTimeToWake;
	BaseType_t xAlreadyYielded = pdFALSE;
    2e20:	e03ffd15 	stw	zero,-12(fp)


		/* A delay time of zero just forces a reschedule. */
		if( xTicksToDelay > ( TickType_t ) 0U )
    2e24:	e0bfff17 	ldw	r2,-4(fp)
    2e28:	10000d26 	beq	r2,zero,2e60 <vTaskDelay+0x54>
		{
			configASSERT( uxSchedulerSuspended == 0 );
			vTaskSuspendAll();
    2e2c:	0002f6c0 	call	2f6c <vTaskSuspendAll>
				This task cannot be in an event list as it is the currently
				executing task. */

				/* Calculate the time to wake - this may overflow but this is
				not a problem. */
				xTimeToWake = xTickCount + xTicksToDelay;
    2e30:	d0e02797 	ldw	r3,-32610(gp)
    2e34:	e0bfff17 	ldw	r2,-4(fp)
    2e38:	1885883a 	add	r2,r3,r2
    2e3c:	e0bffe15 	stw	r2,-8(fp)

				/* We must remove ourselves from the ready list before adding
				ourselves to the blocked list as the same list item is used for
				both lists. */
				if( uxListRemove( &( pxCurrentTCB->xGenericListItem ) ) == ( UBaseType_t ) 0 )
    2e40:	d0a02297 	ldw	r2,-32630(gp)
    2e44:	10800104 	addi	r2,r2,4
    2e48:	1009883a 	mov	r4,r2
    2e4c:	00015fc0 	call	15fc <uxListRemove>
				}
				else
				{
					mtCOVERAGE_TEST_MARKER();
				}
				prvAddCurrentTaskToDelayedList( xTimeToWake );
    2e50:	e13ffe17 	ldw	r4,-8(fp)
    2e54:	0003b500 	call	3b50 <prvAddCurrentTaskToDelayedList>
			}
			xAlreadyYielded = xTaskResumeAll();
    2e58:	0002f980 	call	2f98 <xTaskResumeAll>
    2e5c:	e0bffd15 	stw	r2,-12(fp)
			mtCOVERAGE_TEST_MARKER();
		}

		/* Force a reschedule if xTaskResumeAll has not already done so, we may
		have put ourselves to sleep. */
		if( xAlreadyYielded == pdFALSE )
    2e60:	e0bffd17 	ldw	r2,-12(fp)
    2e64:	1000011e 	bne	r2,zero,2e6c <vTaskDelay+0x60>
		{
			portYIELD_WITHIN_API();
    2e68:	003b683a 	trap	0
		}
		else
		{
			mtCOVERAGE_TEST_MARKER();
		}
	}
    2e6c:	0001883a 	nop
    2e70:	e037883a 	mov	sp,fp
    2e74:	dfc00117 	ldw	ra,4(sp)
    2e78:	df000017 	ldw	fp,0(sp)
    2e7c:	dec00204 	addi	sp,sp,8
    2e80:	f800283a 	ret

00002e84 <vTaskStartScheduler>:

#endif /* ( ( INCLUDE_xTaskResumeFromISR == 1 ) && ( INCLUDE_vTaskSuspend == 1 ) ) */
/*-----------------------------------------------------------*/

void vTaskStartScheduler( void )
{
    2e84:	defff804 	addi	sp,sp,-32
    2e88:	dfc00715 	stw	ra,28(sp)
    2e8c:	df000615 	stw	fp,24(sp)
    2e90:	df000604 	addi	fp,sp,24
		xReturn = xTaskCreate( prvIdleTask, "IDLE", tskIDLE_STACK_SIZE, ( void * ) NULL, ( tskIDLE_PRIORITY | portPRIVILEGE_BIT ), &xIdleTaskHandle ); /*lint !e961 MISRA exception, justified as it is not a redundant explicit cast to all supported compilers. */
	}
	#else
	{
		/* Create the idle task without storing its handle. */
		xReturn = xTaskCreate( prvIdleTask, "IDLE", tskIDLE_STACK_SIZE, ( void * ) NULL, ( tskIDLE_PRIORITY | portPRIVILEGE_BIT ), NULL );  /*lint !e961 MISRA exception, justified as it is not a redundant explicit cast to all supported compilers. */
    2e94:	d8000315 	stw	zero,12(sp)
    2e98:	d8000215 	stw	zero,8(sp)
    2e9c:	d8000115 	stw	zero,4(sp)
    2ea0:	d8000015 	stw	zero,0(sp)
    2ea4:	000f883a 	mov	r7,zero
    2ea8:	01840004 	movi	r6,4096
    2eac:	01420034 	movhi	r5,2048
    2eb0:	29400d04 	addi	r5,r5,52
    2eb4:	01000034 	movhi	r4,0
    2eb8:	210e2504 	addi	r4,r4,14484
    2ebc:	0002b780 	call	2b78 <xTaskGenericCreate>
    2ec0:	e0bffe15 	stw	r2,-8(fp)
	}
	#endif /* INCLUDE_xTaskGetIdleTaskHandle */

	#if ( configUSE_TIMERS == 1 )
	{
		if( xReturn == pdPASS )
    2ec4:	e0bffe17 	ldw	r2,-8(fp)
    2ec8:	10800058 	cmpnei	r2,r2,1
    2ecc:	1000021e 	bne	r2,zero,2ed8 <vTaskStartScheduler+0x54>
		{
			xReturn = xTimerCreateTimerTask();
    2ed0:	00048080 	call	4808 <xTimerCreateTimerTask>
    2ed4:	e0bffe15 	stw	r2,-8(fp)
			mtCOVERAGE_TEST_MARKER();
		}
	}
	#endif /* configUSE_TIMERS */

	if( xReturn == pdPASS )
    2ed8:	e0bffe17 	ldw	r2,-8(fp)
    2edc:	10800058 	cmpnei	r2,r2,1
    2ee0:	10000a1e 	bne	r2,zero,2f0c <vTaskStartScheduler+0x88>
static ALT_INLINE alt_irq_context ALT_ALWAYS_INLINE 
       alt_irq_disable_all (void)
{
  alt_irq_context context;

  NIOS2_READ_STATUS (context);
    2ee4:	0005303a 	rdctl	r2,status
    2ee8:	e0bfff15 	stw	r2,-4(fp)

  NIOS2_WRITE_STATUS (context & ~NIOS2_STATUS_PIE_MSK);
    2eec:	e0ffff17 	ldw	r3,-4(fp)
    2ef0:	00bfff84 	movi	r2,-2
    2ef4:	1884703a 	and	r2,r3,r2
    2ef8:	1001703a 	wrctl	status,r2
			structure specific to the task that will run first. */
			_impure_ptr = &( pxCurrentTCB->xNewLib_reent );
		}
		#endif /* configUSE_NEWLIB_REENTRANT */

		xSchedulerRunning = pdTRUE;
    2efc:	00800044 	movi	r2,1
    2f00:	d0a02995 	stw	r2,-32602(gp)
		xTickCount = ( TickType_t ) 0U;
    2f04:	d0202795 	stw	zero,-32610(gp)
		the run time counter time base. */
		portCONFIGURE_TIMER_FOR_RUN_TIME_STATS();

		/* Setting up the timer tick is hardware specific and thus in the
		portable interface. */
		if( xPortStartScheduler() != pdFALSE )
    2f08:	00017e00 	call	17e0 <xPortStartScheduler>
		/* This line will only be reached if the kernel could not be started,
		because there was not enough FreeRTOS heap to create the idle task
		or the timer task. */
		configASSERT( xReturn );
	}
}
    2f0c:	0001883a 	nop
    2f10:	e037883a 	mov	sp,fp
    2f14:	dfc00117 	ldw	ra,4(sp)
    2f18:	df000017 	ldw	fp,0(sp)
    2f1c:	dec00204 	addi	sp,sp,8
    2f20:	f800283a 	ret

00002f24 <vTaskEndScheduler>:
/*-----------------------------------------------------------*/

void vTaskEndScheduler( void )
{
    2f24:	defffd04 	addi	sp,sp,-12
    2f28:	dfc00215 	stw	ra,8(sp)
    2f2c:	df000115 	stw	fp,4(sp)
    2f30:	df000104 	addi	fp,sp,4
static ALT_INLINE alt_irq_context ALT_ALWAYS_INLINE 
       alt_irq_disable_all (void)
{
  alt_irq_context context;

  NIOS2_READ_STATUS (context);
    2f34:	0005303a 	rdctl	r2,status
    2f38:	e0bfff15 	stw	r2,-4(fp)

  NIOS2_WRITE_STATUS (context & ~NIOS2_STATUS_PIE_MSK);
    2f3c:	e0ffff17 	ldw	r3,-4(fp)
    2f40:	00bfff84 	movi	r2,-2
    2f44:	1884703a 	and	r2,r3,r2
    2f48:	1001703a 	wrctl	status,r2
	/* Stop the scheduler interrupts and call the portable scheduler end
	routine so the original ISRs can be restored if necessary.  The port
	layer must ensure interrupts enable	bit is left in the correct state. */
	portDISABLE_INTERRUPTS();
	xSchedulerRunning = pdFALSE;
    2f4c:	d0202995 	stw	zero,-32602(gp)
	vPortEndScheduler();
    2f50:	00018180 	call	1818 <vPortEndScheduler>
}
    2f54:	0001883a 	nop
    2f58:	e037883a 	mov	sp,fp
    2f5c:	dfc00117 	ldw	ra,4(sp)
    2f60:	df000017 	ldw	fp,0(sp)
    2f64:	dec00204 	addi	sp,sp,8
    2f68:	f800283a 	ret

00002f6c <vTaskSuspendAll>:
/*----------------------------------------------------------*/

void vTaskSuspendAll( void )
{
    2f6c:	deffff04 	addi	sp,sp,-4
    2f70:	df000015 	stw	fp,0(sp)
    2f74:	d839883a 	mov	fp,sp
	/* A critical section is not required as the variable is of type
	BaseType_t.  Please read Richard Barry's reply in the following link to a
	post in the FreeRTOS support forum before reporting this as a bug! -
	http://goo.gl/wu4acr */
	++uxSchedulerSuspended;
    2f78:	d0a02e97 	ldw	r2,-32582(gp)
    2f7c:	10800044 	addi	r2,r2,1
    2f80:	d0a02e95 	stw	r2,-32582(gp)
}
    2f84:	0001883a 	nop
    2f88:	e037883a 	mov	sp,fp
    2f8c:	df000017 	ldw	fp,0(sp)
    2f90:	dec00104 	addi	sp,sp,4
    2f94:	f800283a 	ret

00002f98 <xTaskResumeAll>:

#endif /* configUSE_TICKLESS_IDLE */
/*----------------------------------------------------------*/

BaseType_t xTaskResumeAll( void )
{
    2f98:	defffc04 	addi	sp,sp,-16
    2f9c:	dfc00315 	stw	ra,12(sp)
    2fa0:	df000215 	stw	fp,8(sp)
    2fa4:	df000204 	addi	fp,sp,8
TCB_t *pxTCB;
BaseType_t xAlreadyYielded = pdFALSE;
    2fa8:	e03ffe15 	stw	zero,-8(fp)
